
AVRASM ver. 2.1.17  C:\Documents and Settings\Administrator\Desktop\New Folder\List\lightb.asm Tue Jan 17 08:13:27 2017

C:\Documents and Settings\Administrator\Desktop\New Folder\List\lightb.asm(1027): warning: Register r4 already defined by the .DEF directive
C:\Documents and Settings\Administrator\Desktop\New Folder\List\lightb.asm(1028): warning: Register r7 already defined by the .DEF directive
C:\Documents and Settings\Administrator\Desktop\New Folder\List\lightb.asm(1029): warning: Register r6 already defined by the .DEF directive
C:\Documents and Settings\Administrator\Desktop\New Folder\List\lightb.asm(1030): warning: Register r9 already defined by the .DEF directive
C:\Documents and Settings\Administrator\Desktop\New Folder\List\lightb.asm(1031): warning: Register r10 already defined by the .DEF directive
C:\Documents and Settings\Administrator\Desktop\New Folder\List\lightb.asm(1032): warning: Register r12 already defined by the .DEF directive
C:\Documents and Settings\Administrator\Desktop\New Folder\List\lightb.asm(1033): warning: Register r8 already defined by the .DEF directive
                 
                 
                 ;CodeVisionAVR C Compiler V2.03.4 Standard
                 ;(C) Copyright 1998-2008 Pavel Haiduc, HP InfoTech s.r.l.
                 ;http://www.hpinfotech.com
                 
                 ;Chip type              : ATmega64
                 ;Program type           : Application
                 ;Clock frequency        : 11.059200 MHz
                 ;Memory model           : Small
                 ;Optimize for           : Size
                 ;(s)printf features     : int, width
                 ;(s)scanf features      : int, width
                 ;External RAM size      : 0
                 ;Data Stack size        : 1024 byte(s)
                 ;Heap size              : 0 byte(s)
                 ;Promote char to int    : Yes
                 ;char is unsigned       : Yes
                 ;global const stored in FLASH  : No
                 ;8 bit enums            : Yes
                 ;Enhanced core instructions    : On
                 ;Smart register allocation : On
                 ;Automatic register allocation : On
                 
                 	#pragma AVRPART ADMIN PART_NAME ATmega64
                 	#pragma AVRPART MEMORY PROG_FLASH 65536
                 	#pragma AVRPART MEMORY EEPROM 2048
                 	#pragma AVRPART MEMORY INT_SRAM SIZE 4096
                 	#pragma AVRPART MEMORY INT_SRAM START_ADDR 0x100
                 
                 	.LISTMAC
                 	.EQU UDRE=0x5
                 	.EQU RXC=0x7
                 	.EQU USR=0xB
                 	.EQU UDR=0xC
                 	.EQU SPSR=0xE
                 	.EQU SPDR=0xF
                 	.EQU EERE=0x0
                 	.EQU EEWE=0x1
                 	.EQU EEMWE=0x2
                 	.EQU EECR=0x1C
                 	.EQU EEDR=0x1D
                 	.EQU EEARL=0x1E
                 	.EQU EEARH=0x1F
                 	.EQU WDTCR=0x21
                 	.EQU MCUCR=0x35
                 	.EQU SPL=0x3D
                 	.EQU SPH=0x3E
                 	.EQU SREG=0x3F
                 	.EQU XMCRA=0x6D
                 	.EQU XMCRB=0x6C
                 
                 	.DEF R0X0=R0
                 	.DEF R0X1=R1
                 	.DEF R0X2=R2
                 	.DEF R0X3=R3
                 	.DEF R0X4=R4
                 	.DEF R0X5=R5
                 	.DEF R0X6=R6
                 	.DEF R0X7=R7
                 	.DEF R0X8=R8
                 	.DEF R0X9=R9
                 	.DEF R0XA=R10
                 	.DEF R0XB=R11
                 	.DEF R0XC=R12
                 	.DEF R0XD=R13
                 	.DEF R0XE=R14
                 	.DEF R0XF=R15
                 	.DEF R0X10=R16
                 	.DEF R0X11=R17
                 	.DEF R0X12=R18
                 	.DEF R0X13=R19
                 	.DEF R0X14=R20
                 	.DEF R0X15=R21
                 	.DEF R0X16=R22
                 	.DEF R0X17=R23
                 	.DEF R0X18=R24
                 	.DEF R0X19=R25
                 	.DEF R0X1A=R26
                 	.DEF R0X1B=R27
                 	.DEF R0X1C=R28
                 	.DEF R0X1D=R29
                 	.DEF R0X1E=R30
                 	.DEF R0X1F=R31
                 
                 	.MACRO __CPD1N
                 	CPI  R30,LOW(@0)
                 	LDI  R26,HIGH(@0)
                 	CPC  R31,R26
                 	LDI  R26,BYTE3(@0)
                 	CPC  R22,R26
                 	LDI  R26,BYTE4(@0)
                 	CPC  R23,R26
                 	.ENDM
                 
                 	.MACRO __CPD2N
                 	CPI  R26,LOW(@0)
                 	LDI  R30,HIGH(@0)
                 	CPC  R27,R30
                 	LDI  R30,BYTE3(@0)
                 	CPC  R24,R30
                 	LDI  R30,BYTE4(@0)
                 	CPC  R25,R30
                 	.ENDM
                 
                 	.MACRO __CPWRR
                 	CP   R@0,R@2
                 	CPC  R@1,R@3
                 	.ENDM
                 
                 	.MACRO __CPWRN
                 	CPI  R@0,LOW(@2)
                 	LDI  R30,HIGH(@2)
                 	CPC  R@1,R30
                 	.ENDM
                 
                 	.MACRO __ADDB1MN
                 	SUBI R30,LOW(-@0-(@1))
                 	.ENDM
                 
                 	.MACRO __ADDB2MN
                 	SUBI R26,LOW(-@0-(@1))
                 	.ENDM
                 
                 	.MACRO __ADDW1MN
                 	SUBI R30,LOW(-@0-(@1))
                 	SBCI R31,HIGH(-@0-(@1))
                 	.ENDM
                 
                 	.MACRO __ADDW2MN
                 	SUBI R26,LOW(-@0-(@1))
                 	SBCI R27,HIGH(-@0-(@1))
                 	.ENDM
                 
                 	.MACRO __ADDW1FN
                 	SUBI R30,LOW(-2*@0-(@1))
                 	SBCI R31,HIGH(-2*@0-(@1))
                 	.ENDM
                 
                 	.MACRO __ADDD1FN
                 	SUBI R30,LOW(-2*@0-(@1))
                 	SBCI R31,HIGH(-2*@0-(@1))
                 	SBCI R22,BYTE3(-2*@0-(@1))
                 	.ENDM
                 
                 	.MACRO __ADDD1N
                 	SUBI R30,LOW(-@0)
                 	SBCI R31,HIGH(-@0)
                 	SBCI R22,BYTE3(-@0)
                 	SBCI R23,BYTE4(-@0)
                 	.ENDM
                 
                 	.MACRO __ADDD2N
                 	SUBI R26,LOW(-@0)
                 	SBCI R27,HIGH(-@0)
                 	SBCI R24,BYTE3(-@0)
                 	SBCI R25,BYTE4(-@0)
                 	.ENDM
                 
                 	.MACRO __SUBD1N
                 	SUBI R30,LOW(@0)
                 	SBCI R31,HIGH(@0)
                 	SBCI R22,BYTE3(@0)
                 	SBCI R23,BYTE4(@0)
                 	.ENDM
                 
                 	.MACRO __SUBD2N
                 	SUBI R26,LOW(@0)
                 	SBCI R27,HIGH(@0)
                 	SBCI R24,BYTE3(@0)
                 	SBCI R25,BYTE4(@0)
                 	.ENDM
                 
                 	.MACRO __ANDBMNN
                 	LDS  R30,@0+@1
                 	ANDI R30,LOW(@2)
                 	STS  @0+@1,R30
                 	.ENDM
                 
                 	.MACRO __ANDWMNN
                 	LDS  R30,@0+@1
                 	ANDI R30,LOW(@2)
                 	STS  @0+@1,R30
                 	LDS  R30,@0+@1+1
                 	ANDI R30,HIGH(@2)
                 	STS  @0+@1+1,R30
                 	.ENDM
                 
                 	.MACRO __ANDD1N
                 	ANDI R30,LOW(@0)
                 	ANDI R31,HIGH(@0)
                 	ANDI R22,BYTE3(@0)
                 	ANDI R23,BYTE4(@0)
                 	.ENDM
                 
                 	.MACRO __ANDD2N
                 	ANDI R26,LOW(@0)
                 	ANDI R27,HIGH(@0)
                 	ANDI R24,BYTE3(@0)
                 	ANDI R25,BYTE4(@0)
                 	.ENDM
                 
                 	.MACRO __ORBMNN
                 	LDS  R30,@0+@1
                 	ORI  R30,LOW(@2)
                 	STS  @0+@1,R30
                 	.ENDM
                 
                 	.MACRO __ORWMNN
                 	LDS  R30,@0+@1
                 	ORI  R30,LOW(@2)
                 	STS  @0+@1,R30
                 	LDS  R30,@0+@1+1
                 	ORI  R30,HIGH(@2)
                 	STS  @0+@1+1,R30
                 	.ENDM
                 
                 	.MACRO __ORD1N
                 	ORI  R30,LOW(@0)
                 	ORI  R31,HIGH(@0)
                 	ORI  R22,BYTE3(@0)
                 	ORI  R23,BYTE4(@0)
                 	.ENDM
                 
                 	.MACRO __ORD2N
                 	ORI  R26,LOW(@0)
                 	ORI  R27,HIGH(@0)
                 	ORI  R24,BYTE3(@0)
                 	ORI  R25,BYTE4(@0)
                 	.ENDM
                 
                 	.MACRO __DELAY_USB
                 	LDI  R24,LOW(@0)
                 __DELAY_USB_LOOP:
                 	DEC  R24
                 	BRNE __DELAY_USB_LOOP
                 	.ENDM
                 
                 	.MACRO __DELAY_USW
                 	LDI  R24,LOW(@0)
                 	LDI  R25,HIGH(@0)
                 __DELAY_USW_LOOP:
                 	SBIW R24,1
                 	BRNE __DELAY_USW_LOOP
                 	.ENDM
                 
                 	.MACRO __CLRD1S
                 	LDI  R30,0
                 	STD  Y+@0,R30
                 	STD  Y+@0+1,R30
                 	STD  Y+@0+2,R30
                 	STD  Y+@0+3,R30
                 	.ENDM
                 
                 	.MACRO __GETD1S
                 	LDD  R30,Y+@0
                 	LDD  R31,Y+@0+1
                 	LDD  R22,Y+@0+2
                 	LDD  R23,Y+@0+3
                 	.ENDM
                 
                 	.MACRO __PUTD1S
                 	STD  Y+@0,R30
                 	STD  Y+@0+1,R31
                 	STD  Y+@0+2,R22
                 	STD  Y+@0+3,R23
                 	.ENDM
                 
                 	.MACRO __PUTD2S
                 	STD  Y+@0,R26
                 	STD  Y+@0+1,R27
                 	STD  Y+@0+2,R24
                 	STD  Y+@0+3,R25
                 	.ENDM
                 
                 	.MACRO __POINTB1MN
                 	LDI  R30,LOW(@0+@1)
                 	.ENDM
                 
                 	.MACRO __POINTW1MN
                 	LDI  R30,LOW(@0+@1)
                 	LDI  R31,HIGH(@0+@1)
                 	.ENDM
                 
                 	.MACRO __POINTD1M
                 	LDI  R30,LOW(@0)
                 	LDI  R31,HIGH(@0)
                 	LDI  R22,BYTE3(@0)
                 	LDI  R23,BYTE4(@0)
                 	.ENDM
                 
                 	.MACRO __POINTW1FN
                 	LDI  R30,LOW(2*@0+@1)
                 	LDI  R31,HIGH(2*@0+@1)
                 	.ENDM
                 
                 	.MACRO __POINTD1FN
                 	LDI  R30,LOW(2*@0+@1)
                 	LDI  R31,HIGH(2*@0+@1)
                 	LDI  R22,BYTE3(2*@0+@1)
                 	LDI  R23,BYTE4(2*@0+@1)
                 	.ENDM
                 
                 	.MACRO __POINTB2MN
                 	LDI  R26,LOW(@0+@1)
                 	.ENDM
                 
                 	.MACRO __POINTW2MN
                 	LDI  R26,LOW(@0+@1)
                 	LDI  R27,HIGH(@0+@1)
                 	.ENDM
                 
                 	.MACRO __POINTBRM
                 	LDI  R@0,LOW(@1)
                 	.ENDM
                 
                 	.MACRO __POINTWRM
                 	LDI  R@0,LOW(@2)
                 	LDI  R@1,HIGH(@2)
                 	.ENDM
                 
                 	.MACRO __POINTBRMN
                 	LDI  R@0,LOW(@1+@2)
                 	.ENDM
                 
                 	.MACRO __POINTWRMN
                 	LDI  R@0,LOW(@2+@3)
                 	LDI  R@1,HIGH(@2+@3)
                 	.ENDM
                 
                 	.MACRO __POINTWRFN
                 	LDI  R@0,LOW(@2*2+@3)
                 	LDI  R@1,HIGH(@2*2+@3)
                 	.ENDM
                 
                 	.MACRO __GETD1N
                 	LDI  R30,LOW(@0)
                 	LDI  R31,HIGH(@0)
                 	LDI  R22,BYTE3(@0)
                 	LDI  R23,BYTE4(@0)
                 	.ENDM
                 
                 	.MACRO __GETD2N
                 	LDI  R26,LOW(@0)
                 	LDI  R27,HIGH(@0)
                 	LDI  R24,BYTE3(@0)
                 	LDI  R25,BYTE4(@0)
                 	.ENDM
                 
                 	.MACRO __GETD2S
                 	LDD  R26,Y+@0
                 	LDD  R27,Y+@0+1
                 	LDD  R24,Y+@0+2
                 	LDD  R25,Y+@0+3
                 	.ENDM
                 
                 	.MACRO __GETB1MN
                 	LDS  R30,@0+@1
                 	.ENDM
                 
                 	.MACRO __GETB1HMN
                 	LDS  R31,@0+@1
                 	.ENDM
                 
                 	.MACRO __GETW1MN
                 	LDS  R30,@0+@1
                 	LDS  R31,@0+@1+1
                 	.ENDM
                 
                 	.MACRO __GETD1MN
                 	LDS  R30,@0+@1
                 	LDS  R31,@0+@1+1
                 	LDS  R22,@0+@1+2
                 	LDS  R23,@0+@1+3
                 	.ENDM
                 
                 	.MACRO __GETBRMN
                 	LDS  R@0,@1+@2
                 	.ENDM
                 
                 	.MACRO __GETWRMN
                 	LDS  R@0,@2+@3
                 	LDS  R@1,@2+@3+1
                 	.ENDM
                 
                 	.MACRO __GETWRZ
                 	LDD  R@0,Z+@2
                 	LDD  R@1,Z+@2+1
                 	.ENDM
                 
                 	.MACRO __GETD2Z
                 	LDD  R26,Z+@0
                 	LDD  R27,Z+@0+1
                 	LDD  R24,Z+@0+2
                 	LDD  R25,Z+@0+3
                 	.ENDM
                 
                 	.MACRO __GETB2MN
                 	LDS  R26,@0+@1
                 	.ENDM
                 
                 	.MACRO __GETW2MN
                 	LDS  R26,@0+@1
                 	LDS  R27,@0+@1+1
                 	.ENDM
                 
                 	.MACRO __GETD2MN
                 	LDS  R26,@0+@1
                 	LDS  R27,@0+@1+1
                 	LDS  R24,@0+@1+2
                 	LDS  R25,@0+@1+3
                 	.ENDM
                 
                 	.MACRO __PUTB1MN
                 	STS  @0+@1,R30
                 	.ENDM
                 
                 	.MACRO __PUTW1MN
                 	STS  @0+@1,R30
                 	STS  @0+@1+1,R31
                 	.ENDM
                 
                 	.MACRO __PUTD1MN
                 	STS  @0+@1,R30
                 	STS  @0+@1+1,R31
                 	STS  @0+@1+2,R22
                 	STS  @0+@1+3,R23
                 	.ENDM
                 
                 	.MACRO __PUTB1EN
                 	LDI  R26,LOW(@0+@1)
                 	LDI  R27,HIGH(@0+@1)
                 	CALL __EEPROMWRB
                 	.ENDM
                 
                 	.MACRO __PUTW1EN
                 	LDI  R26,LOW(@0+@1)
                 	LDI  R27,HIGH(@0+@1)
                 	CALL __EEPROMWRW
                 	.ENDM
                 
                 	.MACRO __PUTD1EN
                 	LDI  R26,LOW(@0+@1)
                 	LDI  R27,HIGH(@0+@1)
                 	CALL __EEPROMWRD
                 	.ENDM
                 
                 	.MACRO __PUTBR0MN
                 	STS  @0+@1,R0
                 	.ENDM
                 
                 	.MACRO __PUTDZ2
                 	STD  Z+@0,R26
                 	STD  Z+@0+1,R27
                 	STD  Z+@0+2,R24
                 	STD  Z+@0+3,R25
                 	.ENDM
                 
                 	.MACRO __PUTBMRN
                 	STS  @0+@1,R@2
                 	.ENDM
                 
                 	.MACRO __PUTWMRN
                 	STS  @0+@1,R@2
                 	STS  @0+@1+1,R@3
                 	.ENDM
                 
                 	.MACRO __PUTBZR
                 	STD  Z+@1,R@0
                 	.ENDM
                 
                 	.MACRO __PUTWZR
                 	STD  Z+@2,R@0
                 	STD  Z+@2+1,R@1
                 	.ENDM
                 
                 	.MACRO __GETW1R
                 	MOV  R30,R@0
                 	MOV  R31,R@1
                 	.ENDM
                 
                 	.MACRO __GETW2R
                 	MOV  R26,R@0
                 	MOV  R27,R@1
                 	.ENDM
                 
                 	.MACRO __GETWRN
                 	LDI  R@0,LOW(@2)
                 	LDI  R@1,HIGH(@2)
                 	.ENDM
                 
                 	.MACRO __PUTW1R
                 	MOV  R@0,R30
                 	MOV  R@1,R31
                 	.ENDM
                 
                 	.MACRO __PUTW2R
                 	MOV  R@0,R26
                 	MOV  R@1,R27
                 	.ENDM
                 
                 	.MACRO __ADDWRN
                 	SUBI R@0,LOW(-@2)
                 	SBCI R@1,HIGH(-@2)
                 	.ENDM
                 
                 	.MACRO __ADDWRR
                 	ADD  R@0,R@2
                 	ADC  R@1,R@3
                 	.ENDM
                 
                 	.MACRO __SUBWRN
                 	SUBI R@0,LOW(@2)
                 	SBCI R@1,HIGH(@2)
                 	.ENDM
                 
                 	.MACRO __SUBWRR
                 	SUB  R@0,R@2
                 	SBC  R@1,R@3
                 	.ENDM
                 
                 	.MACRO __ANDWRN
                 	ANDI R@0,LOW(@2)
                 	ANDI R@1,HIGH(@2)
                 	.ENDM
                 
                 	.MACRO __ANDWRR
                 	AND  R@0,R@2
                 	AND  R@1,R@3
                 	.ENDM
                 
                 	.MACRO __ORWRN
                 	ORI  R@0,LOW(@2)
                 	ORI  R@1,HIGH(@2)
                 	.ENDM
                 
                 	.MACRO __ORWRR
                 	OR   R@0,R@2
                 	OR   R@1,R@3
                 	.ENDM
                 
                 	.MACRO __EORWRR
                 	EOR  R@0,R@2
                 	EOR  R@1,R@3
                 	.ENDM
                 
                 	.MACRO __GETWRS
                 	LDD  R@0,Y+@2
                 	LDD  R@1,Y+@2+1
                 	.ENDM
                 
                 	.MACRO __PUTWSR
                 	STD  Y+@2,R@0
                 	STD  Y+@2+1,R@1
                 	.ENDM
                 
                 	.MACRO __MOVEWRR
                 	MOV  R@0,R@2
                 	MOV  R@1,R@3
                 	.ENDM
                 
                 	.MACRO __INWR
                 	IN   R@0,@2
                 	IN   R@1,@2+1
                 	.ENDM
                 
                 	.MACRO __OUTWR
                 	OUT  @2+1,R@1
                 	OUT  @2,R@0
                 	.ENDM
                 
                 	.MACRO __CALL1MN
                 	LDS  R30,@0+@1
                 	LDS  R31,@0+@1+1
                 	ICALL
                 	.ENDM
                 
                 	.MACRO __CALL1FN
                 	LDI  R30,LOW(2*@0+@1)
                 	LDI  R31,HIGH(2*@0+@1)
                 	CALL __GETW1PF
                 	ICALL
                 	.ENDM
                 
                 	.MACRO __CALL2EN
                 	LDI  R26,LOW(@0+@1)
                 	LDI  R27,HIGH(@0+@1)
                 	CALL __EEPROMRDW
                 	ICALL
                 	.ENDM
                 
                 	.MACRO __GETW1STACK
                 	IN   R26,SPL
                 	IN   R27,SPH
                 	ADIW R26,@0+1
                 	LD   R30,X+
                 	LD   R31,X
                 	.ENDM
                 
                 	.MACRO __NBST
                 	BST  R@0,@1
                 	IN   R30,SREG
                 	LDI  R31,0x40
                 	EOR  R30,R31
                 	OUT  SREG,R30
                 	.ENDM
                 
                 
                 	.MACRO __PUTB1SN
                 	LDD  R26,Y+@0
                 	LDD  R27,Y+@0+1
                 	SUBI R26,LOW(-@1)
                 	SBCI R27,HIGH(-@1)
                 	ST   X,R30
                 	.ENDM
                 
                 	.MACRO __PUTW1SN
                 	LDD  R26,Y+@0
                 	LDD  R27,Y+@0+1
                 	SUBI R26,LOW(-@1)
                 	SBCI R27,HIGH(-@1)
                 	ST   X+,R30
                 	ST   X,R31
                 	.ENDM
                 
                 	.MACRO __PUTD1SN
                 	LDD  R26,Y+@0
                 	LDD  R27,Y+@0+1
                 	SUBI R26,LOW(-@1)
                 	SBCI R27,HIGH(-@1)
                 	CALL __PUTDP1
                 	.ENDM
                 
                 	.MACRO __PUTB1SNS
                 	LDD  R26,Y+@0
                 	LDD  R27,Y+@0+1
                 	ADIW R26,@1
                 	ST   X,R30
                 	.ENDM
                 
                 	.MACRO __PUTW1SNS
                 	LDD  R26,Y+@0
                 	LDD  R27,Y+@0+1
                 	ADIW R26,@1
                 	ST   X+,R30
                 	ST   X,R31
                 	.ENDM
                 
                 	.MACRO __PUTD1SNS
                 	LDD  R26,Y+@0
                 	LDD  R27,Y+@0+1
                 	ADIW R26,@1
                 	CALL __PUTDP1
                 	.ENDM
                 
                 	.MACRO __PUTB1PMN
                 	LDS  R26,@0
                 	LDS  R27,@0+1
                 	SUBI R26,LOW(-@1)
                 	SBCI R27,HIGH(-@1)
                 	ST   X,R30
                 	.ENDM
                 
                 	.MACRO __PUTW1PMN
                 	LDS  R26,@0
                 	LDS  R27,@0+1
                 	SUBI R26,LOW(-@1)
                 	SBCI R27,HIGH(-@1)
                 	ST   X+,R30
                 	ST   X,R31
                 	.ENDM
                 
                 	.MACRO __PUTD1PMN
                 	LDS  R26,@0
                 	LDS  R27,@0+1
                 	SUBI R26,LOW(-@1)
                 	SBCI R27,HIGH(-@1)
                 	CALL __PUTDP1
                 	.ENDM
                 
                 	.MACRO __PUTB1PMNS
                 	LDS  R26,@0
                 	LDS  R27,@0+1
                 	ADIW R26,@1
                 	ST   X,R30
                 	.ENDM
                 
                 	.MACRO __PUTW1PMNS
                 	LDS  R26,@0
                 	LDS  R27,@0+1
                 	ADIW R26,@1
                 	ST   X+,R30
                 	ST   X,R31
                 	.ENDM
                 
                 	.MACRO __PUTD1PMNS
                 	LDS  R26,@0
                 	LDS  R27,@0+1
                 	ADIW R26,@1
                 	CALL __PUTDP1
                 	.ENDM
                 
                 	.MACRO __PUTB1RN
                 	MOVW R26,R@0
                 	SUBI R26,LOW(-@1)
                 	SBCI R27,HIGH(-@1)
                 	ST   X,R30
                 	.ENDM
                 
                 	.MACRO __PUTW1RN
                 	MOVW R26,R@0
                 	SUBI R26,LOW(-@1)
                 	SBCI R27,HIGH(-@1)
                 	ST   X+,R30
                 	ST   X,R31
                 	.ENDM
                 
                 	.MACRO __PUTD1RN
                 	MOVW R26,R@0
                 	SUBI R26,LOW(-@1)
                 	SBCI R27,HIGH(-@1)
                 	CALL __PUTDP1
                 	.ENDM
                 
                 	.MACRO __PUTB1RNS
                 	MOVW R26,R@0
                 	ADIW R26,@1
                 	ST   X,R30
                 	.ENDM
                 
                 	.MACRO __PUTW1RNS
                 	MOVW R26,R@0
                 	ADIW R26,@1
                 	ST   X+,R30
                 	ST   X,R31
                 	.ENDM
                 
                 	.MACRO __PUTD1RNS
                 	MOVW R26,R@0
                 	ADIW R26,@1
                 	CALL __PUTDP1
                 	.ENDM
                 
                 	.MACRO __PUTB1RON
                 	MOV  R26,R@0
                 	MOV  R27,R@1
                 	SUBI R26,LOW(-@2)
                 	SBCI R27,HIGH(-@2)
                 	ST   X,R30
                 	.ENDM
                 
                 	.MACRO __PUTW1RON
                 	MOV  R26,R@0
                 	MOV  R27,R@1
                 	SUBI R26,LOW(-@2)
                 	SBCI R27,HIGH(-@2)
                 	ST   X+,R30
                 	ST   X,R31
                 	.ENDM
                 
                 	.MACRO __PUTD1RON
                 	MOV  R26,R@0
                 	MOV  R27,R@1
                 	SUBI R26,LOW(-@2)
                 	SBCI R27,HIGH(-@2)
                 	CALL __PUTDP1
                 	.ENDM
                 
                 	.MACRO __PUTB1RONS
                 	MOV  R26,R@0
                 	MOV  R27,R@1
                 	ADIW R26,@2
                 	ST   X,R30
                 	.ENDM
                 
                 	.MACRO __PUTW1RONS
                 	MOV  R26,R@0
                 	MOV  R27,R@1
                 	ADIW R26,@2
                 	ST   X+,R30
                 	ST   X,R31
                 	.ENDM
                 
                 	.MACRO __PUTD1RONS
                 	MOV  R26,R@0
                 	MOV  R27,R@1
                 	ADIW R26,@2
                 	CALL __PUTDP1
                 	.ENDM
                 
                 
                 	.MACRO __GETB1SX
                 	MOVW R30,R28
                 	SUBI R30,LOW(-@0)
                 	SBCI R31,HIGH(-@0)
                 	LD   R30,Z
                 	.ENDM
                 
                 	.MACRO __GETB1HSX
                 	MOVW R30,R28
                 	SUBI R30,LOW(-@0)
                 	SBCI R31,HIGH(-@0)
                 	LD   R31,Z
                 	.ENDM
                 
                 	.MACRO __GETW1SX
                 	MOVW R30,R28
                 	SUBI R30,LOW(-@0)
                 	SBCI R31,HIGH(-@0)
                 	LD   R0,Z+
                 	LD   R31,Z
                 	MOV  R30,R0
                 	.ENDM
                 
                 	.MACRO __GETD1SX
                 	MOVW R30,R28
                 	SUBI R30,LOW(-@0)
                 	SBCI R31,HIGH(-@0)
                 	LD   R0,Z+
                 	LD   R1,Z+
                 	LD   R22,Z+
                 	LD   R23,Z
                 	MOVW R30,R0
                 	.ENDM
                 
                 	.MACRO __GETB2SX
                 	MOVW R26,R28
                 	SUBI R26,LOW(-@0)
                 	SBCI R27,HIGH(-@0)
                 	LD   R26,X
                 	.ENDM
                 
                 	.MACRO __GETW2SX
                 	MOVW R26,R28
                 	SUBI R26,LOW(-@0)
                 	SBCI R27,HIGH(-@0)
                 	LD   R0,X+
                 	LD   R27,X
                 	MOV  R26,R0
                 	.ENDM
                 
                 	.MACRO __GETD2SX
                 	MOVW R26,R28
                 	SUBI R26,LOW(-@0)
                 	SBCI R27,HIGH(-@0)
                 	LD   R0,X+
                 	LD   R1,X+
                 	LD   R24,X+
                 	LD   R25,X
                 	MOVW R26,R0
                 	.ENDM
                 
                 	.MACRO __GETBRSX
                 	MOVW R30,R28
                 	SUBI R30,LOW(-@1)
                 	SBCI R31,HIGH(-@1)
                 	LD   R@0,Z
                 	.ENDM
                 
                 	.MACRO __GETWRSX
                 	MOVW R30,R28
                 	SUBI R30,LOW(-@2)
                 	SBCI R31,HIGH(-@2)
                 	LD   R@0,Z+
                 	LD   R@1,Z
                 	.ENDM
                 
                 	.MACRO __LSLW8SX
                 	MOVW R30,R28
                 	SUBI R30,LOW(-@0)
                 	SBCI R31,HIGH(-@0)
                 	LD   R31,Z
                 	CLR  R30
                 	.ENDM
                 
                 	.MACRO __PUTB1SX
                 	MOVW R26,R28
                 	SUBI R26,LOW(-@0)
                 	SBCI R27,HIGH(-@0)
                 	ST   X,R30
                 	.ENDM
                 
                 	.MACRO __PUTW1SX
                 	MOVW R26,R28
                 	SUBI R26,LOW(-@0)
                 	SBCI R27,HIGH(-@0)
                 	ST   X+,R30
                 	ST   X,R31
                 	.ENDM
                 
                 	.MACRO __PUTD1SX
                 	MOVW R26,R28
                 	SUBI R26,LOW(-@0)
                 	SBCI R27,HIGH(-@0)
                 	ST   X+,R30
                 	ST   X+,R31
                 	ST   X+,R22
                 	ST   X,R23
                 	.ENDM
                 
                 	.MACRO __CLRW1SX
                 	MOVW R30,R28
                 	SUBI R30,LOW(-@0)
                 	SBCI R31,HIGH(-@0)
                 	CLR  R0
                 	ST   Z+,R0
                 	ST   Z,R0
                 	.ENDM
                 
                 	.MACRO __CLRD1SX
                 	MOVW R30,R28
                 	SUBI R30,LOW(-@0)
                 	SBCI R31,HIGH(-@0)
                 	CLR  R0
                 	ST   Z+,R0
                 	ST   Z+,R0
                 	ST   Z+,R0
                 	ST   Z,R0
                 	.ENDM
                 
                 	.MACRO __PUTB2SX
                 	MOVW R30,R28
                 	SUBI R30,LOW(-@0)
                 	SBCI R31,HIGH(-@0)
                 	ST   Z,R26
                 	.ENDM
                 
                 	.MACRO __PUTW2SX
                 	MOVW R30,R28
                 	SUBI R30,LOW(-@0)
                 	SBCI R31,HIGH(-@0)
                 	ST   Z+,R26
                 	ST   Z,R27
                 	.ENDM
                 
                 	.MACRO __PUTD2SX
                 	MOVW R30,R28
                 	SUBI R30,LOW(-@0)
                 	SBCI R31,HIGH(-@0)
                 	ST   Z+,R26
                 	ST   Z+,R27
                 	ST   Z+,R24
                 	ST   Z,R25
                 	.ENDM
                 
                 	.MACRO __PUTBSRX
                 	MOVW R30,R28
                 	SUBI R30,LOW(-@0)
                 	SBCI R31,HIGH(-@0)
                 	ST   Z,R@1
                 	.ENDM
                 
                 	.MACRO __PUTWSRX
                 	MOVW R30,R28
                 	SUBI R30,LOW(-@2)
                 	SBCI R31,HIGH(-@2)
                 	ST   Z+,R@0
                 	ST   Z,R@1
                 	.ENDM
                 
                 	.MACRO __PUTB1SNX
                 	MOVW R26,R28
                 	SUBI R26,LOW(-@0)
                 	SBCI R27,HIGH(-@0)
                 	LD   R0,X+
                 	LD   R27,X
                 	MOV  R26,R0
                 	SUBI R26,LOW(-@1)
                 	SBCI R27,HIGH(-@1)
                 	ST   X,R30
                 	.ENDM
                 
                 	.MACRO __PUTW1SNX
                 	MOVW R26,R28
                 	SUBI R26,LOW(-@0)
                 	SBCI R27,HIGH(-@0)
                 	LD   R0,X+
                 	LD   R27,X
                 	MOV  R26,R0
                 	SUBI R26,LOW(-@1)
                 	SBCI R27,HIGH(-@1)
                 	ST   X+,R30
                 	ST   X,R31
                 	.ENDM
                 
                 	.MACRO __PUTD1SNX
                 	MOVW R26,R28
                 	SUBI R26,LOW(-@0)
                 	SBCI R27,HIGH(-@0)
                 	LD   R0,X+
                 	LD   R27,X
                 	MOV  R26,R0
                 	SUBI R26,LOW(-@1)
                 	SBCI R27,HIGH(-@1)
                 	ST   X+,R30
                 	ST   X+,R31
                 	ST   X+,R22
                 	ST   X,R23
                 	.ENDM
                 
                 	.MACRO __MULBRR
                 	MULS R@0,R@1
                 	MOVW R30,R0
                 	.ENDM
                 
                 	.MACRO __MULBRRU
                 	MUL  R@0,R@1
                 	MOVW R30,R0
                 	.ENDM
                 
                 	.MACRO __MULBRR0
                 	MULS R@0,R@1
                 	.ENDM
                 
                 	.MACRO __MULBRRU0
                 	MUL  R@0,R@1
                 	.ENDM
                 
                 	.MACRO __MULBNWRU
                 	LDI  R26,@2
                 	MUL  R26,R@0
                 	MOVW R30,R0
                 	MUL  R26,R@1
                 	ADD  R31,R0
                 	.ENDM
                 
                 ;NAME DEFINITIONS FOR GLOBAL VARIABLES ALLOCATED TO REGISTERS
                 	.DEF _cmp=R4
                 	.DEF _rx_wr_index1=R7
                 	.DEF _rx_rd_index1=R6
                 	.DEF _rx_counter1=R9
                 	.DEF _t=R10
                 	.DEF _SL=R12
                 	.DEF __lcd_x=R8
                 
                 	.CSEG
                 	.ORG 0x00
                 
                 ;INTERRUPT VECTORS
000000 940c 0058 	JMP  __RESET
000002 940c 0000 	JMP  0x00
000004 940c 0000 	JMP  0x00
000006 940c 0000 	JMP  0x00
000008 940c 0000 	JMP  0x00
00000a 940c 0000 	JMP  0x00
00000c 940c 0000 	JMP  0x00
00000e 940c 0000 	JMP  0x00
000010 940c 0000 	JMP  0x00
000012 940c 0000 	JMP  0x00
000014 940c 0000 	JMP  0x00
000016 940c 0000 	JMP  0x00
000018 940c 0000 	JMP  0x00
00001a 940c 0000 	JMP  0x00
00001c 940c 0000 	JMP  0x00
00001e 940c 0000 	JMP  0x00
000020 940c 0000 	JMP  0x00
000022 940c 0000 	JMP  0x00
000024 940c 0000 	JMP  0x00
000026 940c 0000 	JMP  0x00
000028 940c 0000 	JMP  0x00
00002a 940c 0000 	JMP  0x00
00002c 940c 0000 	JMP  0x00
00002e 940c 0000 	JMP  0x00
000030 940c 0000 	JMP  0x00
000032 940c 0000 	JMP  0x00
000034 940c 0000 	JMP  0x00
000036 940c 0000 	JMP  0x00
000038 940c 0000 	JMP  0x00
00003a 940c 0000 	JMP  0x00
00003c 940c 00a6 	JMP  _usart1_rx_isr
00003e 940c 0000 	JMP  0x00
000040 940c 0000 	JMP  0x00
000042 940c 0000 	JMP  0x00
000044 940c 0000 	JMP  0x00
                 
                 _tbl10_G100:
000046 2710
000047 03e8
000048 0064
000049 000a      	.DB  0x10,0x27,0xE8,0x3,0x64,0x0,0xA,0x0
00004a 0001      	.DB  0x1,0x0
                 _tbl16_G100:
00004b 1000
00004c 0100
00004d 0010
00004e 0001      	.DB  0x0,0x10,0x0,0x1,0x10,0x0,0x1,0x0
                 
                 _0x152:
00004f 0000      	.DB  0x0,0x0
                 _0x2020003:
000050 c080      	.DB  0x80,0xC0
                 
                 __GLOBAL_INI_TBL:
000051 0002      	.DW  0x02
000052 000a      	.DW  0x0A
000053 009e      	.DW  _0x152*2
                 
000054 0002      	.DW  0x02
000055 0564      	.DW  __base_y_G101
000056 00a0      	.DW  _0x2020003*2
                 
                 _0xFFFFFFFF:
000057 0000      	.DW  0
                 
                 __RESET:
000058 94f8      	CLI
000059 27ee      	CLR  R30
00005a bbec      	OUT  EECR,R30
                 
                 ;INTERRUPT VECTORS ARE PLACED
                 ;AT THE START OF FLASH
00005b e0f1      	LDI  R31,1
00005c bff5      	OUT  MCUCR,R31
00005d bfe5      	OUT  MCUCR,R30
00005e 93e0 006c 	STS  XMCRB,R30
                 
                 ;DISABLE WATCHDOG
000060 e1f8      	LDI  R31,0x18
000061 bdf1      	OUT  WDTCR,R31
000062 bde1      	OUT  WDTCR,R30
                 
                 ;CLEAR R2-R14
000063 e08d      	LDI  R24,(14-2)+1
000064 e0a2      	LDI  R26,2
000065 27bb      	CLR  R27
                 __CLEAR_REG:
000066 93ed      	ST   X+,R30
000067 958a      	DEC  R24
000068 f7e9      	BRNE __CLEAR_REG
                 
                 ;CLEAR SRAM
000069 e080      	LDI  R24,LOW(0x1000)
00006a e190      	LDI  R25,HIGH(0x1000)
00006b e0a0      	LDI  R26,LOW(0x100)
00006c e0b1      	LDI  R27,HIGH(0x100)
                 __CLEAR_SRAM:
00006d 93ed      	ST   X+,R30
00006e 9701      	SBIW R24,1
00006f f7e9      	BRNE __CLEAR_SRAM
                 
                 ;GLOBAL VARIABLES INITIALIZATION
000070 eae2      	LDI  R30,LOW(__GLOBAL_INI_TBL*2)
000071 e0f0      	LDI  R31,HIGH(__GLOBAL_INI_TBL*2)
                 __GLOBAL_INI_NEXT:
000072 9185      	LPM  R24,Z+
000073 9195      	LPM  R25,Z+
000074 9700      	SBIW R24,0
000075 f061      	BREQ __GLOBAL_INI_END
000076 91a5      	LPM  R26,Z+
000077 91b5      	LPM  R27,Z+
000078 9005      	LPM  R0,Z+
000079 9015      	LPM  R1,Z+
00007a 01bf      	MOVW R22,R30
00007b 01f0      	MOVW R30,R0
                 __GLOBAL_INI_LOOP:
00007c 9005      	LPM  R0,Z+
00007d 920d      	ST   X+,R0
00007e 9701      	SBIW R24,1
00007f f7e1      	BRNE __GLOBAL_INI_LOOP
000080 01fb      	MOVW R30,R22
000081 cff0      	RJMP __GLOBAL_INI_NEXT
                 __GLOBAL_INI_END:
                 
                 ;STACK POINTER INITIALIZATION
000082 efef      	LDI  R30,LOW(0x10FF)
000083 bfed      	OUT  SPL,R30
000084 e1e0      	LDI  R30,HIGH(0x10FF)
000085 bfee      	OUT  SPH,R30
                 
                 ;DATA STACK POINTER INITIALIZATION
000086 e0c0      	LDI  R28,LOW(0x500)
000087 e0d5      	LDI  R29,HIGH(0x500)
                 
000088 940c 0634 	JMP  _main
                 
                 	.ESEG
                 	.ORG 0
                 
                 	.DSEG
                 	.ORG 0x500
                 
                 	.CSEG
                 ;/*****************************************************
                 ;This program was produced by the
                 ;CodeWizardAVR V2.03.4 Standard
                 ;Automatic Program Generator
                 ;© Copyright 1998-2008 Pavel Haiduc, HP InfoTech s.r.l.
                 ;http://www.hpinfotech.com
                 ;
                 ;Project :
                 ;Version :
                 ;Date    : 10/31/2015
                 ;Author  :
                 ;Company :
                 ;Comments:
                 ;
                 ;
                 ;Chip type           : ATmega64
                 ;Program type        : Application
                 ;Clock frequency     : 11.059200 MHz
                 ;Memory model        : Small
                 ;External RAM size   : 0
                 ;Data Stack size     : 1024
                 ;*****************************************************/
                 ;
                 ;#include <mega64.h>
                 	#ifndef __SLEEP_DEFINED__
                 	#define __SLEEP_DEFINED__
                 	.EQU __se_bit=0x20
                 	.EQU __sm_mask=0x1C
                 	.EQU __sm_powerdown=0x10
                 	.EQU __sm_powersave=0x18
                 	.EQU __sm_standby=0x14
                 	.EQU __sm_ext_standby=0x1C
                 	.EQU __sm_adc_noise_red=0x08
                 	.SET power_ctrl_reg=mcucr
                 	#endif
                 ;#include <delay.h>
                 ;#include <stdio.h>
                 ;
                 ;// I2C Bus functions
                 ;#asm
                    .equ __i2c_port=0x12 ;PORTD
                    .equ __sda_bit=1
                    .equ __scl_bit=0
                 ; 0000 0021 #endasm
                 ;#include <i2c.h>
                 ;eeprom int c;
                 ;//////////////////////////////////////////cmp
                 ; #define EEPROM_BUS_ADDRESS 0xc0
                 ;int cmp;
                 ;/* read a byte from the EEPROM */
                 ;unsigned char compass_read(unsigned char address) {
                 ; 0000 0028 unsigned char compass_read(unsigned char address) {
                 
                 	.CSEG
                 _compass_read:
                 ; 0000 0029 unsigned char data;
                 ; 0000 002A i2c_start();
00008a 931a      	ST   -Y,R17
                 ;	address -> Y+1
                 ;	data -> R17
00008b 940e 0b8c 	CALL _i2c_start
                 ; 0000 002B i2c_write(EEPROM_BUS_ADDRESS);
00008d ece0      	LDI  R30,LOW(192)
00008e 93ea      	ST   -Y,R30
00008f 940e 0bc0 	CALL _i2c_write
                 ; 0000 002C i2c_write(address);
000091 81e9      	LDD  R30,Y+1
000092 93ea      	ST   -Y,R30
000093 940e 0bc0 	CALL _i2c_write
                 ; 0000 002D i2c_start();
000095 940e 0b8c 	CALL _i2c_start
                 ; 0000 002E i2c_write(EEPROM_BUS_ADDRESS | 1);
000097 ece1      	LDI  R30,LOW(193)
000098 93ea      	ST   -Y,R30
000099 940e 0bc0 	CALL _i2c_write
                 ; 0000 002F data=i2c_read(0);
00009b e0e0      	LDI  R30,LOW(0)
00009c 93ea      	ST   -Y,R30
00009d 940e 0ba5 	CALL _i2c_read
00009f 2f1e      	MOV  R17,R30
                 ; 0000 0030 i2c_stop();
0000a0 940e 0b9b 	CALL _i2c_stop
                 ; 0000 0031 return data;
0000a2 2fe1      	MOV  R30,R17
0000a3 8118      	LDD  R17,Y+0
0000a4 9622      	ADIW R28,2
0000a5 9508      	RET
                 ; 0000 0032 }
                 ;
                 ;// Alphanumeric LCD Module functions
                 ;#asm
                    .equ __lcd_port=0x15 ;PORTC
                 ; 0000 0037 #endasm
                 ;#include <lcd.h>
                 ;
                 ;#define RXB8 1
                 ;#define TXB8 0
                 ;#define UPE 2
                 ;#define OVR 3
                 ;#define FE 4
                 ;#define UDRE 5
                 ;#define RXC 7
                 ;
                 ;#define FRAMING_ERROR (1<<FE)
                 ;#define PARITY_ERROR (1<<UPE)
                 ;#define DATA_OVERRUN (1<<OVR)
                 ;#define DATA_REGISTER_EMPTY (1<<UDRE)
                 ;#define RX_COMPLETE (1<<RXC)
                 ;
                 ;// USART1 Receiver buffer
                 ;#define RX_BUFFER_SIZE1 8
                 ;char rx_buffer1[RX_BUFFER_SIZE1];
                 ;
                 ;#if RX_BUFFER_SIZE1<256
                 ;unsigned char rx_wr_index1,rx_rd_index1,rx_counter1;
                 ;#else
                 ;unsigned int rx_wr_index1,rx_rd_index1,rx_counter1;
                 ;#endif
                 ;
                 ;// This flag is set on USART1 Receiver buffer overflow
                 ;bit rx_buffer_overflow1;
                 ;   int t=0;
                 ;// USART1 Receiver interrupt service routine
                 ;interrupt [USART1_RXC] void usart1_rx_isr(void)
                 ; 0000 0057 {
                 _usart1_rx_isr:
0000a6 920a      	ST   -Y,R0
0000a7 921a      	ST   -Y,R1
0000a8 92fa      	ST   -Y,R15
0000a9 936a      	ST   -Y,R22
0000aa 937a      	ST   -Y,R23
0000ab 938a      	ST   -Y,R24
0000ac 939a      	ST   -Y,R25
0000ad 93aa      	ST   -Y,R26
0000ae 93ba      	ST   -Y,R27
0000af 93ea      	ST   -Y,R30
0000b0 93fa      	ST   -Y,R31
0000b1 b7ef      	IN   R30,SREG
0000b2 93ea      	ST   -Y,R30
                 ; 0000 0058 char status,data;
                 ; 0000 0059 status=UCSR1A;
0000b3 931a      	ST   -Y,R17
0000b4 930a      	ST   -Y,R16
                 ;	status -> R17
                 ;	data -> R16
0000b5 9110 009b 	LDS  R17,155
                 ; 0000 005A data=UDR1;
0000b7 9100 009c 	LDS  R16,156
                 ; 0000 005B if ((status & (FRAMING_ERROR | PARITY_ERROR | DATA_OVERRUN))==0)
0000b9 2fa1      	MOV  R26,R17
0000ba e0b0      	LDI  R27,0
0000bb e1ec      	LDI  R30,LOW(28)
0000bc e0f0      	LDI  R31,HIGH(28)
0000bd 23ea      	AND  R30,R26
0000be 23fb      	AND  R31,R27
0000bf 9730      	SBIW R30,0
0000c0 f489      	BRNE _0x3
                 ; 0000 005C    {
                 ; 0000 005D    rx_buffer1[rx_wr_index1]=data;
0000c1 2de7      	MOV  R30,R7
0000c2 e0f0      	LDI  R31,0
0000c3 50e0      	SUBI R30,LOW(-_rx_buffer1)
0000c4 4ffb      	SBCI R31,HIGH(-_rx_buffer1)
0000c5 8300      	ST   Z,R16
                 ; 0000 005E    if (++rx_wr_index1 == RX_BUFFER_SIZE1) rx_wr_index1=0;
0000c6 9473      	INC  R7
0000c7 e0e8      	LDI  R30,LOW(8)
0000c8 15e7      	CP   R30,R7
0000c9 f409      	BRNE _0x4
0000ca 2477      	CLR  R7
                 ; 0000 005F    if (++rx_counter1 == RX_BUFFER_SIZE1)
                 _0x4:
0000cb 9493      	INC  R9
0000cc e0e8      	LDI  R30,LOW(8)
0000cd 15e9      	CP   R30,R9
0000ce f419      	BRNE _0x5
                 ; 0000 0060       {
                 ; 0000 0061       rx_counter1=0;
0000cf 2499      	CLR  R9
                 ; 0000 0062       rx_buffer_overflow1=1;
0000d0 9468      	SET
0000d1 f820      	BLD  R2,0
                 ; 0000 0063       };
                 _0x5:
                 ; 0000 0064    };
                 _0x3:
                 ; 0000 0065     if (data=='2'){
0000d2 3302      	CPI  R16,50
0000d3 f451      	BRNE _0x6
                 ; 0000 0066    lcd_gotoxy(12,1);
0000d4 940e 0971 	CALL SUBOPT_0x0
                 ; 0000 0067    lcd_putchar('2');
0000d6 e3e2      	LDI  R30,LOW(50)
0000d7 93ea      	ST   -Y,R30
0000d8 940e 0906 	CALL _lcd_putchar
                 ; 0000 0068    t=2;
0000da e0e2      	LDI  R30,LOW(2)
0000db e0f0      	LDI  R31,HIGH(2)
0000dc 015f      	MOVW R10,R30
                 ; 0000 0069    }
                 ; 0000 006A    else    if (data=='1'){
0000dd c020      	RJMP _0x7
                 _0x6:
0000de 3301      	CPI  R16,49
0000df f451      	BRNE _0x8
                 ; 0000 006B    lcd_gotoxy(12,1);
0000e0 940e 0971 	CALL SUBOPT_0x0
                 ; 0000 006C    lcd_putchar('1');
0000e2 e3e1      	LDI  R30,LOW(49)
0000e3 93ea      	ST   -Y,R30
0000e4 940e 0906 	CALL _lcd_putchar
                 ; 0000 006D    t=1;
0000e6 e0e1      	LDI  R30,LOW(1)
0000e7 e0f0      	LDI  R31,HIGH(1)
0000e8 015f      	MOVW R10,R30
                 ; 0000 006E    }
                 ; 0000 006F      else    if (data=='3'){
0000e9 c014      	RJMP _0x9
                 _0x8:
0000ea 3303      	CPI  R16,51
0000eb f451      	BRNE _0xA
                 ; 0000 0070    lcd_gotoxy(12,1);
0000ec 940e 0971 	CALL SUBOPT_0x0
                 ; 0000 0071    lcd_putchar('3');
0000ee e3e3      	LDI  R30,LOW(51)
0000ef 93ea      	ST   -Y,R30
0000f0 940e 0906 	CALL _lcd_putchar
                 ; 0000 0072    t=3;
0000f2 e0e3      	LDI  R30,LOW(3)
0000f3 e0f0      	LDI  R31,HIGH(3)
0000f4 015f      	MOVW R10,R30
                 ; 0000 0073    }
                 ; 0000 0074     else {
0000f5 c008      	RJMP _0xB
                 _0xA:
                 ; 0000 0075    lcd_gotoxy(12,1);
0000f6 940e 0971 	CALL SUBOPT_0x0
                 ; 0000 0076    lcd_putchar('n');
0000f8 e6ee      	LDI  R30,LOW(110)
0000f9 93ea      	ST   -Y,R30
0000fa 940e 0906 	CALL _lcd_putchar
                 ; 0000 0077    t=0;}
0000fc 24aa      	CLR  R10
0000fd 24bb      	CLR  R11
                 _0xB:
                 _0x9:
                 _0x7:
                 ; 0000 0078 
                 ; 0000 0079 }
0000fe 9109      	LD   R16,Y+
0000ff 9119      	LD   R17,Y+
000100 91e9      	LD   R30,Y+
000101 bfef      	OUT  SREG,R30
000102 91f9      	LD   R31,Y+
000103 91e9      	LD   R30,Y+
000104 91b9      	LD   R27,Y+
000105 91a9      	LD   R26,Y+
000106 9199      	LD   R25,Y+
000107 9189      	LD   R24,Y+
000108 9179      	LD   R23,Y+
000109 9169      	LD   R22,Y+
00010a 90f9      	LD   R15,Y+
00010b 9019      	LD   R1,Y+
00010c 9009      	LD   R0,Y+
00010d 9518      	RETI
                 ;
                 ;// Get a character from the USART1 Receiver buffer
                 ;#pragma used+
                 ;char getchar1(void)
                 ; 0000 007E {
                 ; 0000 007F char data;
                 ; 0000 0080 while (rx_counter1==0);
                 ;	data -> R17
                 ; 0000 0081 data=rx_buffer1[rx_rd_index1];
                 ; 0000 0082 if (++rx_rd_index1 == RX_BUFFER_SIZE1) rx_rd_index1=0;
                 ; 0000 0083 #asm("cli")
                 ; 0000 0084 --rx_counter1;
                 ; 0000 0085 #asm("sei")
                 ; 0000 0086 return data;
                 ; 0000 0087 }
                 ;#pragma used-
                 ;// Write a character to the USART1 Transmitter
                 ;#pragma used+
                 ;void putchar1(char c)
                 ; 0000 008C {
                 _putchar1:
                 ; 0000 008D while ((UCSR1A & DATA_REGISTER_EMPTY)==0);
                 ;	c -> Y+0
                 _0x10:
00010e 91e0 009b 	LDS  R30,155
000110 e0f0      	LDI  R31,0
000111 72e0      	ANDI R30,LOW(0x20)
000112 f3d9      	BREQ _0x10
                 ; 0000 008E UDR1=c;
000113 81e8      	LD   R30,Y
000114 93e0 009c 	STS  156,R30
                 ; 0000 008F }
000116 c015      	RJMP _0x2080002
                 ;#pragma used-
                 ;
                 ;#include <delay.h>
                 ;
                 ;#define ADC_VREF_TYPE 0x40
                 ;
                 ;// Read the AD conversion result
                 ;unsigned int read_adc(unsigned char adc_input)
                 ; 0000 0098 {
                 _read_adc:
                 ; 0000 0099 ADMUX=adc_input | (ADC_VREF_TYPE & 0xff);
                 ;	adc_input -> Y+0
000117 940e 0977 	CALL SUBOPT_0x1
000119 64e0      	ORI  R30,0x40
00011a b9e7      	OUT  0x7,R30
                 ; 0000 009A // Delay needed for the stabilization of the ADC input voltage
                 ; 0000 009B delay_us(10);
                +
00011b e285     +LDI R24 , LOW ( 37 )
                +__DELAY_USB_LOOP :
00011c 958a     +DEC R24
00011d f7f1     +BRNE __DELAY_USB_LOOP
                 	__DELAY_USB 37
                 ; 0000 009C // Start the AD conversion
                 ; 0000 009D ADCSRA|=0x40;
00011e 940e 097a 	CALL SUBOPT_0x2
000120 64e0      	ORI  R30,0x40
000121 b9e6      	OUT  0x6,R30
                 ; 0000 009E // Wait for the AD conversion to complete
                 ; 0000 009F while ((ADCSRA & 0x10)==0);
                 _0x13:
000122 940e 097a 	CALL SUBOPT_0x2
000124 71e0      	ANDI R30,LOW(0x10)
000125 f3e1      	BREQ _0x13
                 ; 0000 00A0 ADCSRA|=0x10;
000126 940e 097a 	CALL SUBOPT_0x2
000128 61e0      	ORI  R30,0x10
000129 b9e6      	OUT  0x6,R30
                 ; 0000 00A1 return ADCW;
00012a b1e4      	IN   R30,0x4
00012b b1f5      	IN   R31,0x4+1
                 _0x2080002:
00012c 9621      	ADIW R28,1
00012d 9508      	RET
                 ; 0000 00A2 }
                 ;
                 ;// Declare your global variables here
                 ;void motor(int ML1,int ML2,int MR2,int MR1){
                 ; 0000 00A5 void motor(int ML1,int ML2,int MR2,int MR1){
                 _motor:
                 ; 0000 00A6 #asm("cli")
                 ;	ML1 -> Y+6
                 ;	ML2 -> Y+4
                 ;	MR2 -> Y+2
                 ;	MR1 -> Y+0
00012e 94f8      	cli
                 ; 0000 00A7 #asm("wdr") ;
00012f 95a8      	wdr
                 ; 0000 00A8 
                 ; 0000 00A9 if(ML1<-255) ML1=-255;
000130 81ae      	LDD  R26,Y+6
000131 81bf      	LDD  R27,Y+6+1
000132 30a1      	CPI  R26,LOW(0xFF01)
000133 efef      	LDI  R30,HIGH(0xFF01)
000134 07be      	CPC  R27,R30
000135 f424      	BRGE _0x16
000136 e0e1      	LDI  R30,LOW(65281)
000137 efff      	LDI  R31,HIGH(65281)
000138 83ee      	STD  Y+6,R30
000139 83ff      	STD  Y+6+1,R31
                 ; 0000 00AA if(ML2<-255) ML2=-255;
                 _0x16:
00013a 81ac      	LDD  R26,Y+4
00013b 81bd      	LDD  R27,Y+4+1
00013c 30a1      	CPI  R26,LOW(0xFF01)
00013d efef      	LDI  R30,HIGH(0xFF01)
00013e 07be      	CPC  R27,R30
00013f f424      	BRGE _0x17
000140 e0e1      	LDI  R30,LOW(65281)
000141 efff      	LDI  R31,HIGH(65281)
000142 83ec      	STD  Y+4,R30
000143 83fd      	STD  Y+4+1,R31
                 ; 0000 00AB if(MR1<-255) MR1=-255;
                 _0x17:
000144 81a8      	LD   R26,Y
000145 81b9      	LDD  R27,Y+1
000146 30a1      	CPI  R26,LOW(0xFF01)
000147 efef      	LDI  R30,HIGH(0xFF01)
000148 07be      	CPC  R27,R30
000149 f424      	BRGE _0x18
00014a e0e1      	LDI  R30,LOW(65281)
00014b efff      	LDI  R31,HIGH(65281)
00014c 83e8      	ST   Y,R30
00014d 83f9      	STD  Y+1,R31
                 ; 0000 00AC if(MR2<-255) MR2=-255;
                 _0x18:
00014e 81aa      	LDD  R26,Y+2
00014f 81bb      	LDD  R27,Y+2+1
000150 30a1      	CPI  R26,LOW(0xFF01)
000151 efef      	LDI  R30,HIGH(0xFF01)
000152 07be      	CPC  R27,R30
000153 f424      	BRGE _0x19
000154 e0e1      	LDI  R30,LOW(65281)
000155 efff      	LDI  R31,HIGH(65281)
000156 83ea      	STD  Y+2,R30
000157 83fb      	STD  Y+2+1,R31
                 ; 0000 00AD 
                 ; 0000 00AE if(ML1>255) ML1=255;
                 _0x19:
000158 81ae      	LDD  R26,Y+6
000159 81bf      	LDD  R27,Y+6+1
00015a 30a0      	CPI  R26,LOW(0x100)
00015b e0e1      	LDI  R30,HIGH(0x100)
00015c 07be      	CPC  R27,R30
00015d f024      	BRLT _0x1A
00015e efef      	LDI  R30,LOW(255)
00015f e0f0      	LDI  R31,HIGH(255)
000160 83ee      	STD  Y+6,R30
000161 83ff      	STD  Y+6+1,R31
                 ; 0000 00AF if(ML2>255) ML2=255;
                 _0x1A:
000162 81ac      	LDD  R26,Y+4
000163 81bd      	LDD  R27,Y+4+1
000164 30a0      	CPI  R26,LOW(0x100)
000165 e0e1      	LDI  R30,HIGH(0x100)
000166 07be      	CPC  R27,R30
000167 f024      	BRLT _0x1B
000168 efef      	LDI  R30,LOW(255)
000169 e0f0      	LDI  R31,HIGH(255)
00016a 83ec      	STD  Y+4,R30
00016b 83fd      	STD  Y+4+1,R31
                 ; 0000 00B0 if(MR1>255) MR1=255;
                 _0x1B:
00016c 81a8      	LD   R26,Y
00016d 81b9      	LDD  R27,Y+1
00016e 30a0      	CPI  R26,LOW(0x100)
00016f e0e1      	LDI  R30,HIGH(0x100)
000170 07be      	CPC  R27,R30
000171 f024      	BRLT _0x1C
000172 efef      	LDI  R30,LOW(255)
000173 e0f0      	LDI  R31,HIGH(255)
000174 83e8      	ST   Y,R30
000175 83f9      	STD  Y+1,R31
                 ; 0000 00B1 if(MR2>255) MR2=255;
                 _0x1C:
000176 81aa      	LDD  R26,Y+2
000177 81bb      	LDD  R27,Y+2+1
000178 30a0      	CPI  R26,LOW(0x100)
000179 e0e1      	LDI  R30,HIGH(0x100)
00017a 07be      	CPC  R27,R30
00017b f024      	BRLT _0x1D
00017c efef      	LDI  R30,LOW(255)
00017d e0f0      	LDI  R31,HIGH(255)
00017e 83ea      	STD  Y+2,R30
00017f 83fb      	STD  Y+2+1,R31
                 ; 0000 00B2 /////////////////////////////////
                 ; 0000 00B3 if(ML1>=0){
                 _0x1D:
000180 81af      	LDD  R26,Y+7
000181 23aa      	TST  R26
000182 f012      	BRMI _0x1E
                 ; 0000 00B4 PORTD.7=0;
000183 9897      	CBI  0x12,7
                 ; 0000 00B5 OCR2=ML1;}
000184 c004      	RJMP _0x146
                 ; 0000 00B6 else if(ML1<0){
                 _0x1E:
000185 81af      	LDD  R26,Y+7
000186 23aa      	TST  R26
000187 f422      	BRPL _0x22
                 ; 0000 00B7 PORTD.7=1;
000188 9a97      	SBI  0x12,7
                 ; 0000 00B8 OCR2=ML1;}
                 _0x146:
000189 81ee      	LDD  R30,Y+6
00018a 81ff      	LDD  R31,Y+6+1
00018b bde3      	OUT  0x23,R30
                 ; 0000 00B9 
                 ; 0000 00BA 
                 ; 0000 00BB 
                 ; 0000 00BC      /////////////////////////
                 ; 0000 00BD if(ML2>=0){
                 _0x22:
00018c 81ad      	LDD  R26,Y+5
00018d 23aa      	TST  R26
00018e f012      	BRMI _0x25
                 ; 0000 00BE PORTD.6=0;
00018f 9896      	CBI  0x12,6
                 ; 0000 00BF OCR1B=ML2;
000190 c004      	RJMP _0x147
                 ; 0000 00C0 }
                 ; 0000 00C1 else if(ML2<0){
                 _0x25:
000191 81ad      	LDD  R26,Y+5
000192 23aa      	TST  R26
000193 f42a      	BRPL _0x29
                 ; 0000 00C2 PORTD.6=1;
000194 9a96      	SBI  0x12,6
                 ; 0000 00C3 OCR1B=ML2;}
                 _0x147:
000195 81ec      	LDD  R30,Y+4
000196 81fd      	LDD  R31,Y+4+1
000197 bdf9      	OUT  0x28+1,R31
000198 bde8      	OUT  0x28,R30
                 ; 0000 00C4 
                 ; 0000 00C5    /////////////////////////
                 ; 0000 00C6 if(MR1>=0){
                 _0x29:
000199 81a9      	LDD  R26,Y+1
00019a 23aa      	TST  R26
00019b f012      	BRMI _0x2C
                 ; 0000 00C7 PORTD.4=0;
00019c 9894      	CBI  0x12,4
                 ; 0000 00C8 OCR0=MR1;}
00019d c004      	RJMP _0x148
                 ; 0000 00C9 else if(MR1<0){
                 _0x2C:
00019e 81a9      	LDD  R26,Y+1
00019f 23aa      	TST  R26
0001a0 f422      	BRPL _0x30
                 ; 0000 00CA PORTD.4=1;
0001a1 9a94      	SBI  0x12,4
                 ; 0000 00CB OCR0=MR1;}
                 _0x148:
0001a2 81e8      	LD   R30,Y
0001a3 81f9      	LDD  R31,Y+1
0001a4 bfe1      	OUT  0x31,R30
                 ; 0000 00CC 
                 ; 0000 00CD  ////////////////////////
                 ; 0000 00CE  if(MR2>=0){
                 _0x30:
0001a5 81ab      	LDD  R26,Y+3
0001a6 23aa      	TST  R26
0001a7 f012      	BRMI _0x33
                 ; 0000 00CF PORTD.5=0;
0001a8 9895      	CBI  0x12,5
                 ; 0000 00D0 OCR1A=MR2;}
0001a9 c004      	RJMP _0x149
                 ; 0000 00D1 else if(MR2<0){
                 _0x33:
0001aa 81ab      	LDD  R26,Y+3
0001ab 23aa      	TST  R26
0001ac f42a      	BRPL _0x37
                 ; 0000 00D2 PORTD.5=1;
0001ad 9a95      	SBI  0x12,5
                 ; 0000 00D3 OCR1A=MR2;}
                 _0x149:
0001ae 81ea      	LDD  R30,Y+2
0001af 81fb      	LDD  R31,Y+2+1
0001b0 bdfb      	OUT  0x2A+1,R31
0001b1 bdea      	OUT  0x2A,R30
                 ; 0000 00D4 #asm("wdr") ;
                 _0x37:
0001b2 95a8      	wdr
                 ; 0000 00D5 #asm("sei")
0001b3 9478      	sei
                 ; 0000 00D6 }
0001b4 9628      	ADIW R28,8
0001b5 9508      	RET
                 ;
                 ;
                 ;
                 ;
                 ;int SL,SR,SB,RL,sum=0;
                 ;      void sharp(){
                 ; 0000 00DC void sharp(){
                 _sharp:
                 ; 0000 00DD       #asm("cli")
0001b6 94f8      	cli
                 ; 0000 00DE        #asm("wdr") ;
0001b7 95a8      	wdr
                 ; 0000 00DF 
                 ; 0000 00E0       SB=read_adc(5);
0001b8 e0e5      	LDI  R30,LOW(5)
0001b9 93ea      	ST   -Y,R30
0001ba df5c      	RCALL _read_adc
0001bb 93e0 050a 	STS  _SB,R30
0001bd 93f0 050b 	STS  _SB+1,R31
                 ; 0000 00E1       SR=read_adc(4);
0001bf e0e4      	LDI  R30,LOW(4)
0001c0 93ea      	ST   -Y,R30
0001c1 df55      	RCALL _read_adc
0001c2 93e0 0508 	STS  _SR,R30
0001c4 93f0 0509 	STS  _SR+1,R31
                 ; 0000 00E2       SL=read_adc(3);
0001c6 e0e3      	LDI  R30,LOW(3)
0001c7 93ea      	ST   -Y,R30
0001c8 df4e      	RCALL _read_adc
0001c9 016f      	MOVW R12,R30
                 ; 0000 00E3 
                 ; 0000 00E4        lcd_gotoxy(13,1);
0001ca e0ed      	LDI  R30,LOW(13)
0001cb 940e 097d 	CALL SUBOPT_0x3
                 ; 0000 00E5       lcd_putchar((SR/100)%10+'0');
0001cd 940e 0982 	CALL SUBOPT_0x4
0001cf 940e 0987 	CALL SUBOPT_0x5
                 ; 0000 00E6       lcd_putchar((SR/10)%10+'0');
0001d1 940e 0982 	CALL SUBOPT_0x4
0001d3 940e 0994 	CALL SUBOPT_0x6
                 ; 0000 00E7       lcd_putchar((SR/1)%10+'0');
0001d5 940e 0982 	CALL SUBOPT_0x4
0001d7 940e 09a1 	CALL SUBOPT_0x7
                 ; 0000 00E8         lcd_gotoxy(8,0);
0001d9 940e 09ab 	CALL SUBOPT_0x8
                 ; 0000 00E9       lcd_putchar((SB/100)%10+'0');
0001db 940e 09b0 	CALL SUBOPT_0x9
0001dd 940e 0987 	CALL SUBOPT_0x5
                 ; 0000 00EA       lcd_putchar((SB/10)%10+'0');
0001df 940e 09b0 	CALL SUBOPT_0x9
0001e1 940e 0994 	CALL SUBOPT_0x6
                 ; 0000 00EB       lcd_putchar((SB/1)%10+'0');
0001e3 940e 09b0 	CALL SUBOPT_0x9
0001e5 940e 09a1 	CALL SUBOPT_0x7
                 ; 0000 00EC 
                 ; 0000 00ED        lcd_gotoxy(8,1);
0001e7 940e 097d 	CALL SUBOPT_0x3
                 ; 0000 00EE       lcd_putchar((SL/100)%10+'0');
0001e9 01d6      	MOVW R26,R12
0001ea 940e 0987 	CALL SUBOPT_0x5
                 ; 0000 00EF       lcd_putchar((SL/10)%10+'0');
0001ec 01d6      	MOVW R26,R12
0001ed 940e 0994 	CALL SUBOPT_0x6
                 ; 0000 00F0       lcd_putchar((SL/1)%10+'0');
0001ef 01d6      	MOVW R26,R12
0001f0 940e 09b5 	CALL SUBOPT_0xA
                 ; 0000 00F1 
                 ; 0000 00F2        #asm("wdr") ;
0001f2 95a8      	wdr
                 ; 0000 00F3        RL=(SR-SL);
0001f3 91e0 0508 	LDS  R30,_SR
0001f5 91f0 0509 	LDS  R31,_SR+1
0001f7 19ec      	SUB  R30,R12
0001f8 09fd      	SBC  R31,R13
0001f9 940e 09bd 	CALL SUBOPT_0xB
                 ; 0000 00F4        sum= SR+SL;
0001fb 01f6      	MOVW R30,R12
0001fc 940e 0982 	CALL SUBOPT_0x4
0001fe 0fea      	ADD  R30,R26
0001ff 1ffb      	ADC  R31,R27
000200 93e0 050e 	STS  _sum,R30
000202 93f0 050f 	STS  _sum+1,R31
                 ; 0000 00F5          RL=(SR-SL)/2;
000204 940e 0982 	CALL SUBOPT_0x4
000206 19ac      	SUB  R26,R12
000207 09bd      	SBC  R27,R13
000208 940e 09c2 	CALL SUBOPT_0xC
00020a 940e 09c7 	CALL SUBOPT_0xD
                 ; 0000 00F6 
                 ; 0000 00F7        if(RL>-80 && RL<80) RL=0;
00020c ebe0      	LDI  R30,LOW(65456)
00020d efff      	LDI  R31,HIGH(65456)
00020e 17ea      	CP   R30,R26
00020f 07fb      	CPC  R31,R27
000210 f434      	BRGE _0x3B
000211 940e 09cd 	CALL SUBOPT_0xE
000213 35a0      	CPI  R26,LOW(0x50)
000214 e0e0      	LDI  R30,HIGH(0x50)
000215 07be      	CPC  R27,R30
000216 f00c      	BRLT _0x3C
                 _0x3B:
000217 c004      	RJMP _0x3A
                 _0x3C:
000218 e0e0      	LDI  R30,LOW(0)
000219 e0f0      	LDI  R31,HIGH(0)
00021a 940e 09bd 	CALL SUBOPT_0xB
                 ; 0000 00F8 //       if (RL<50 && RL>-50) RL=0;
                 ; 0000 00F9          if(RL>0) RL=RL*1.5;
                 _0x3A:
00021c 940e 09d2 	CALL SUBOPT_0xF
00021e f43c      	BRGE _0x3D
00021f 940e 09d6 	CALL SUBOPT_0x10
                +
000221 e0a0     +LDI R26 , LOW ( 0x3FC00000 )
000222 e0b0     +LDI R27 , HIGH ( 0x3FC00000 )
000223 ec80     +LDI R24 , BYTE3 ( 0x3FC00000 )
000224 e39f     +LDI R25 , BYTE4 ( 0x3FC00000 )
                 	__GETD2N 0x3FC00000
000225 c00a      	RJMP _0x14A
                 ; 0000 00FA        else if(RL<0) RL=RL*0.8;
                 _0x3D:
000226 91a0 050d 	LDS  R26,_RL+1
000228 23aa      	TST  R26
000229 f472      	BRPL _0x3F
00022a 940e 09d6 	CALL SUBOPT_0x10
                +
00022c ecad     +LDI R26 , LOW ( 0x3F4CCCCD )
00022d ecbc     +LDI R27 , HIGH ( 0x3F4CCCCD )
00022e e48c     +LDI R24 , BYTE3 ( 0x3F4CCCCD )
00022f e39f     +LDI R25 , BYTE4 ( 0x3F4CCCCD )
                 	__GETD2N 0x3F4CCCCD
                 _0x14A:
000230 940e 0cf8 	CALL __MULF12
000232 e0ac      	LDI  R26,LOW(_RL)
000233 e0b5      	LDI  R27,HIGH(_RL)
000234 940e 0c93 	CALL __CFD1
000236 93ed      	ST   X+,R30
000237 93fc      	ST   X,R31
                 ; 0000 00FB 
                 ; 0000 00FC 
                 ; 0000 00FD      //  if(RL>-100 && RL<100) RL=0;
                 ; 0000 00FE //       if(RL>0)
                 ; 0000 00FF //       {
                 ; 0000 0100 //       lcd_gotoxy(0,1);
                 ; 0000 0101 //       lcd_putchar('+');
                 ; 0000 0102 //       lcd_putchar((RL/100)%10+'0');
                 ; 0000 0103 //       lcd_putchar((RL/10)%10+'0');
                 ; 0000 0104 //       lcd_putchar((RL/1)%10+'0');
                 ; 0000 0105 //                }
                 ; 0000 0106 //               else  if(RL<0)
                 ; 0000 0107 //               {
                 ; 0000 0108 //       lcd_gotoxy(0,1);
                 ; 0000 0109 //       lcd_putchar('-');
                 ; 0000 010A //       lcd_putchar((-RL/100)%10+'0');
                 ; 0000 010B //       lcd_putchar((-RL/10)%10+'0');
                 ; 0000 010C //       lcd_putchar((-RL/1)%10+'0');
                 ; 0000 010D //                }
                 ; 0000 010E       #asm("sei")
                 _0x3F:
000238 9478      	sei
                 ; 0000 010F      }
000239 9508      	RET
                 ;
                 ;
                 ;   int adc[16],min=0,i,kaf[16],mini=0,r=0,l=0,f=0,b=0,back=0,h=0;
                 ;      void sensor() {
                 ; 0000 0113 void sensor() {
                 _sensor:
                 ; 0000 0114        #asm("cli")
00023a 94f8      	cli
                 ; 0000 0115 
                 ; 0000 0116     for(i=0;i<16;i++)
00023b e0e0      	LDI  R30,LOW(0)
00023c e0f0      	LDI  R31,HIGH(0)
00023d 93e0 0532 	STS  _i,R30
00023f 93f0 0533 	STS  _i+1,R31
                 _0x41:
000241 940e 09df 	CALL SUBOPT_0x11
000243 9750      	SBIW R26,16
000244 f014      	BRLT PC+3
000245 940c 02bd 	JMP _0x42
                 ; 0000 0117      {
                 ; 0000 0118      #asm("wdr") ;
000247 95a8      	wdr
                 ; 0000 0119  PORTA.3=(i/8)%2;
000248 940e 09df 	CALL SUBOPT_0x11
00024a e0e8      	LDI  R30,LOW(8)
00024b e0f0      	LDI  R31,HIGH(8)
00024c 940e 09e4 	CALL SUBOPT_0x12
00024e f411      	BRNE _0x43
00024f 98db      	CBI  0x1B,3
000250 c001      	RJMP _0x44
                 _0x43:
000251 9adb      	SBI  0x1B,3
                 _0x44:
                 ; 0000 011A  PORTA.2=(i/4)%2;
000252 940e 09df 	CALL SUBOPT_0x11
000254 e0e4      	LDI  R30,LOW(4)
000255 e0f0      	LDI  R31,HIGH(4)
000256 940e 09e4 	CALL SUBOPT_0x12
000258 f411      	BRNE _0x45
000259 98da      	CBI  0x1B,2
00025a c001      	RJMP _0x46
                 _0x45:
00025b 9ada      	SBI  0x1B,2
                 _0x46:
                 ; 0000 011B  PORTA.1=(i/2)%2;
00025c 940e 09df 	CALL SUBOPT_0x11
00025e 940e 09c2 	CALL SUBOPT_0xC
000260 01df      	MOVW R26,R30
000261 e0e2      	LDI  R30,LOW(2)
000262 e0f0      	LDI  R31,HIGH(2)
000263 940e 0c1b 	CALL __MODW21
000265 30e0      	CPI  R30,0
000266 f411      	BRNE _0x47
000267 98d9      	CBI  0x1B,1
000268 c001      	RJMP _0x48
                 _0x47:
000269 9ad9      	SBI  0x1B,1
                 _0x48:
                 ; 0000 011C  PORTA.0=(i/1)%2;
00026a 940e 09df 	CALL SUBOPT_0x11
00026c e0e2      	LDI  R30,LOW(2)
00026d e0f0      	LDI  R31,HIGH(2)
00026e 940e 0c1b 	CALL __MODW21
000270 30e0      	CPI  R30,0
000271 f411      	BRNE _0x49
000272 98d8      	CBI  0x1B,0
000273 c001      	RJMP _0x4A
                 _0x49:
000274 9ad8      	SBI  0x1B,0
                 _0x4A:
                 ; 0000 011D   adc[i]=read_adc(7);
000275 940e 09ed 	CALL SUBOPT_0x13
000277 940e 09f2 	CALL SUBOPT_0x14
000279 0fea      	ADD  R30,R26
00027a 1ffb      	ADC  R31,R27
00027b 93ff      	PUSH R31
00027c 93ef      	PUSH R30
00027d e0e7      	LDI  R30,LOW(7)
00027e 93ea      	ST   -Y,R30
00027f de97      	RCALL _read_adc
000280 91af      	POP  R26
000281 91bf      	POP  R27
000282 93ed      	ST   X+,R30
000283 93fc      	ST   X,R31
                 ; 0000 011E   kaf[i]=read_adc(6);
000284 940e 09f7 	CALL SUBOPT_0x15
000286 0fea      	ADD  R30,R26
000287 1ffb      	ADC  R31,R27
000288 93ff      	PUSH R31
000289 93ef      	PUSH R30
00028a e0e6      	LDI  R30,LOW(6)
00028b 93ea      	ST   -Y,R30
00028c de8a      	RCALL _read_adc
00028d 91af      	POP  R26
00028e 91bf      	POP  R27
00028f 93ed      	ST   X+,R30
000290 93fc      	ST   X,R31
                 ; 0000 011F ////////////////////////////////////////////////////////////moghayese
                 ; 0000 0120   if (adc[i]<adc[min])
000291 940e 09ed 	CALL SUBOPT_0x13
000293 940e 09f2 	CALL SUBOPT_0x14
000295 0fae      	ADD  R26,R30
000296 1fbf      	ADC  R27,R31
000297 900d      	LD   R0,X+
000298 901c      	LD   R1,X
000299 940e 09fd 	CALL SUBOPT_0x16
00029b 940e 0a02 	CALL SUBOPT_0x17
00029d f434      	BRGE _0x4B
                 ; 0000 0121   {  min=i;  }
00029e 940e 09ed 	CALL SUBOPT_0x13
0002a0 93e0 0530 	STS  _min,R30
0002a2 93f0 0531 	STS  _min+1,R31
                 ; 0000 0122 
                 ; 0000 0123    if (kaf[i]<kaf[mini])
                 _0x4B:
0002a4 940e 09f7 	CALL SUBOPT_0x15
0002a6 0fae      	ADD  R26,R30
0002a7 1fbf      	ADC  R27,R31
0002a8 900d      	LD   R0,X+
0002a9 901c      	LD   R1,X
0002aa 940e 0a09 	CALL SUBOPT_0x18
0002ac 940e 0a02 	CALL SUBOPT_0x17
0002ae f434      	BRGE _0x4C
                 ; 0000 0124    {
                 ; 0000 0125 
                 ; 0000 0126    mini=i;  }
0002af 940e 09ed 	CALL SUBOPT_0x13
0002b1 93e0 0554 	STS  _mini,R30
0002b3 93f0 0555 	STS  _mini+1,R31
                 ; 0000 0127 
                 ; 0000 0128  }
                 _0x4C:
0002b5 e3a2      	LDI  R26,LOW(_i)
0002b6 e0b5      	LDI  R27,HIGH(_i)
0002b7 91ed      	LD   R30,X+
0002b8 91fd      	LD   R31,X+
0002b9 9631      	ADIW R30,1
0002ba 93fe      	ST   -X,R31
0002bb 93ee      	ST   -X,R30
0002bc cf84      	RJMP _0x41
                 _0x42:
                 ; 0000 0129 h=(adc[15]+adc[1]+adc[0])/3;
0002bd 940e 0a12 	CALL SUBOPT_0x19
                +
0002bf 91e0 0512+LDS R30 , _adc + 2
0002c1 91f0 0513+LDS R31 , _adc + 2 + 1
                 	__GETW1MN _adc,2
0002c3 0fea      	ADD  R30,R26
0002c4 1ffb      	ADC  R31,R27
0002c5 940e 0a17 	CALL SUBOPT_0x1A
0002c7 0fae      	ADD  R26,R30
0002c8 1fbf      	ADC  R27,R31
0002c9 e0e3      	LDI  R30,LOW(3)
0002ca e0f0      	LDI  R31,HIGH(3)
0002cb 940e 0c16 	CALL __DIVW21
0002cd 93e0 055e 	STS  _h,R30
0002cf 93f0 055f 	STS  _h+1,R31
                 ; 0000 012A  ///////////////////////////////////////////////////////////chap
                 ; 0000 012B   lcd_gotoxy(0,0);
0002d1 e0e0      	LDI  R30,LOW(0)
0002d2 940e 09ab 	CALL SUBOPT_0x8
                 ; 0000 012C   lcd_putchar((min/10)%10+'0');
0002d4 940e 0a1c 	CALL SUBOPT_0x1B
0002d6 940e 0994 	CALL SUBOPT_0x6
                 ; 0000 012D   lcd_putchar((min/1)%10+'0');
0002d8 940e 0a1c 	CALL SUBOPT_0x1B
0002da 940e 09b5 	CALL SUBOPT_0xA
                 ; 0000 012E   lcd_putchar('=');
0002dc e3ed      	LDI  R30,LOW(61)
0002dd 93ea      	ST   -Y,R30
0002de 940e 0906 	CALL _lcd_putchar
                 ; 0000 012F   lcd_putchar((adc[min]/1000)%10+'0');
0002e0 940e 09fd 	CALL SUBOPT_0x16
0002e2 940e 0a21 	CALL SUBOPT_0x1C
0002e4 940e 0a27 	CALL SUBOPT_0x1D
                 ; 0000 0130   lcd_putchar((adc[min]/100)%10+'0');
0002e6 940e 09fd 	CALL SUBOPT_0x16
0002e8 940e 0a21 	CALL SUBOPT_0x1C
0002ea 940e 0987 	CALL SUBOPT_0x5
                 ; 0000 0131   lcd_putchar((adc[min]/10)%10+'0');
0002ec 940e 09fd 	CALL SUBOPT_0x16
0002ee 940e 0a21 	CALL SUBOPT_0x1C
0002f0 940e 0994 	CALL SUBOPT_0x6
                 ; 0000 0132   lcd_putchar((adc[min]/1)%10+'0');
0002f2 940e 09fd 	CALL SUBOPT_0x16
0002f4 940e 0a21 	CALL SUBOPT_0x1C
0002f6 940e 09b5 	CALL SUBOPT_0xA
                 ; 0000 0133  #asm("wdr") ;
0002f8 95a8      	wdr
                 ; 0000 0134 
                 ; 0000 0135  lcd_gotoxy(0,1);
0002f9 e0e0      	LDI  R30,LOW(0)
0002fa 940e 097d 	CALL SUBOPT_0x3
                 ; 0000 0136   lcd_putchar((mini/10)%10+'0');
0002fc 91a0 0554 	LDS  R26,_mini
0002fe 91b0 0555 	LDS  R27,_mini+1
000300 940e 0994 	CALL SUBOPT_0x6
                 ; 0000 0137   lcd_putchar((mini/1)%10+'0');
000302 91a0 0554 	LDS  R26,_mini
000304 91b0 0555 	LDS  R27,_mini+1
000306 940e 09b5 	CALL SUBOPT_0xA
                 ; 0000 0138   lcd_putchar('=');
000308 e3ed      	LDI  R30,LOW(61)
000309 93ea      	ST   -Y,R30
00030a 940e 0906 	CALL _lcd_putchar
                 ; 0000 0139   lcd_putchar((kaf[mini]/1000)%10+'0');
00030c 940e 0a09 	CALL SUBOPT_0x18
00030e 940e 0a21 	CALL SUBOPT_0x1C
000310 940e 0a27 	CALL SUBOPT_0x1D
                 ; 0000 013A   lcd_putchar((kaf[mini]/100)%10+'0');
000312 940e 0a09 	CALL SUBOPT_0x18
000314 940e 0a21 	CALL SUBOPT_0x1C
000316 940e 0987 	CALL SUBOPT_0x5
                 ; 0000 013B   lcd_putchar((kaf[mini]/10)%10+'0');
000318 940e 0a09 	CALL SUBOPT_0x18
00031a 940e 0a21 	CALL SUBOPT_0x1C
00031c 940e 0994 	CALL SUBOPT_0x6
                 ; 0000 013C   lcd_putchar((kaf[mini]/1)%10+'0');
00031e 940e 0a09 	CALL SUBOPT_0x18
000320 940e 0a21 	CALL SUBOPT_0x1C
000322 940e 09b5 	CALL SUBOPT_0xA
                 ; 0000 013D 
                 ; 0000 013E   if((kaf[12]<400 || kaf[13]<400 || kaf[14]<400 || kaf[15]<400) && (kaf[0]<400 || kaf[1]<400 || kaf[2]<400 || kaf[3]<400)  && r==0 && l==0 )
000324 940e 0a2d 	CALL SUBOPT_0x1E
000326 f04c      	BRLT _0x4E
000327 940e 0a35 	CALL SUBOPT_0x1F
000329 f034      	BRLT _0x4E
00032a 940e 0a3d 	CALL SUBOPT_0x20
00032c f01c      	BRLT _0x4E
00032d 940e 0a45 	CALL SUBOPT_0x21
00032f f4a4      	BRGE _0x50
                 _0x4E:
000330 940e 0a4d 	CALL SUBOPT_0x22
000332 f04c      	BRLT _0x51
000333 940e 0a55 	CALL SUBOPT_0x23
000335 f034      	BRLT _0x51
000336 940e 0a5d 	CALL SUBOPT_0x24
000338 f01c      	BRLT _0x51
000339 940e 0a65 	CALL SUBOPT_0x25
00033b f444      	BRGE _0x50
                 _0x51:
00033c 940e 0a6d 	CALL SUBOPT_0x26
00033e 9710      	SBIW R26,0
00033f f421      	BRNE _0x50
000340 940e 0a72 	CALL SUBOPT_0x27
000342 9710      	SBIW R26,0
000343 f009      	BREQ _0x53
                 _0x50:
000344 c042      	RJMP _0x4D
                 _0x53:
                 ; 0000 013F    {
                 ; 0000 0140    if (adc[min]<900 && ((min>11 && min<16 )||( min>=0 && min<5 ))&& f==0 && (kaf[8]<400 || kaf[9]<400 || kaf[10]<400 || kaf[11]<400)) {
000345 940e 09fd 	CALL SUBOPT_0x16
000347 940e 0a77 	CALL SUBOPT_0x28
000349 38e4      	CPI  R30,LOW(0x384)
00034a e0a3      	LDI  R26,HIGH(0x384)
00034b 07fa      	CPC  R31,R26
00034c f5b4      	BRGE _0x55
00034d 940e 0a1c 	CALL SUBOPT_0x1B
00034f 971c      	SBIW R26,12
000350 f024      	BRLT _0x56
000351 940e 0a1c 	CALL SUBOPT_0x1B
000353 9750      	SBIW R26,16
000354 f04c      	BRLT _0x58
                 _0x56:
000355 91a0 0531 	LDS  R26,_min+1
000357 23aa      	TST  R26
000358 f022      	BRMI _0x59
000359 940e 0a1c 	CALL SUBOPT_0x1B
00035b 9715      	SBIW R26,5
00035c f00c      	BRLT _0x58
                 _0x59:
00035d c025      	RJMP _0x55
                 _0x58:
00035e 940e 0a7c 	CALL SUBOPT_0x29
000360 9710      	SBIW R26,0
000361 f509      	BRNE _0x55
                +
000362 91a0 0544+LDS R26 , _kaf + 16
000364 91b0 0545+LDS R27 , _kaf + 16 + 1
                 	__GETW2MN _kaf,16
000366 39a0      	CPI  R26,LOW(0x190)
000367 e0e1      	LDI  R30,HIGH(0x190)
000368 07be      	CPC  R27,R30
000369 f0c4      	BRLT _0x5C
                +
00036a 91a0 0546+LDS R26 , _kaf + 18
00036c 91b0 0547+LDS R27 , _kaf + 18 + 1
                 	__GETW2MN _kaf,18
00036e 39a0      	CPI  R26,LOW(0x190)
00036f e0e1      	LDI  R30,HIGH(0x190)
000370 07be      	CPC  R27,R30
000371 f084      	BRLT _0x5C
                +
000372 91a0 0548+LDS R26 , _kaf + 20
000374 91b0 0549+LDS R27 , _kaf + 20 + 1
                 	__GETW2MN _kaf,20
000376 39a0      	CPI  R26,LOW(0x190)
000377 e0e1      	LDI  R30,HIGH(0x190)
000378 07be      	CPC  R27,R30
000379 f044      	BRLT _0x5C
                +
00037a 91a0 054a+LDS R26 , _kaf + 22
00037c 91b0 054b+LDS R27 , _kaf + 22 + 1
                 	__GETW2MN _kaf,22
00037e 39a0      	CPI  R26,LOW(0x190)
00037f e0e1      	LDI  R30,HIGH(0x190)
000380 07be      	CPC  R27,R30
000381 f40c      	BRGE _0x55
                 _0x5C:
000382 c001      	RJMP _0x5E
                 _0x55:
000383 c003      	RJMP _0x54
                 _0x5E:
                 ; 0000 0141 
                 ; 0000 0142 
                 ; 0000 0143 
                 ; 0000 0144    f=1;
000384 940e 0a81 	CALL SUBOPT_0x2A
                 ; 0000 0145 
                 ; 0000 0146    #asm("wdr") ;
000386 95a8      	wdr
                 ; 0000 0147    }
                 ; 0000 0148 
                 ; 0000 0149    }
                 _0x54:
                 ; 0000 014A 
                 ; 0000 014B     if ((kaf[0]<400 || kaf[1]<400 || kaf[2]<400 || kaf[3]<400)  ) r=1;  //  && l==0
                 _0x4D:
000387 940e 0a4d 	CALL SUBOPT_0x22
000389 f04c      	BRLT _0x60
00038a 940e 0a55 	CALL SUBOPT_0x23
00038c f034      	BRLT _0x60
00038d 940e 0a5d 	CALL SUBOPT_0x24
00038f f01c      	BRLT _0x60
000390 940e 0a65 	CALL SUBOPT_0x25
000392 f424      	BRGE _0x5F
                 _0x60:
000393 e0e1      	LDI  R30,LOW(1)
000394 e0f0      	LDI  R31,HIGH(1)
000395 940e 0a88 	CALL SUBOPT_0x2B
                 ; 0000 014C 
                 ; 0000 014D 
                 ; 0000 014E       if ((kaf[12]<400 || kaf[13]<400 || kaf[14]<400 || kaf[15]<400))  l=1;
                 _0x5F:
000397 940e 0a2d 	CALL SUBOPT_0x1E
000399 f04c      	BRLT _0x63
00039a 940e 0a35 	CALL SUBOPT_0x1F
00039c f034      	BRLT _0x63
00039d 940e 0a3d 	CALL SUBOPT_0x20
00039f f01c      	BRLT _0x63
0003a0 940e 0a45 	CALL SUBOPT_0x21
0003a2 f424      	BRGE _0x62
                 _0x63:
0003a3 e0e1      	LDI  R30,LOW(1)
0003a4 e0f0      	LDI  R31,HIGH(1)
0003a5 940e 0a8d 	CALL SUBOPT_0x2C
                 ; 0000 014F //  if (kaf[4]<300 || kaf[5]<300 || kaf[6]<400 || kaf[7]<300 )  b=1;
                 ; 0000 0150 
                 ; 0000 0151       if ((f==1 || b==1) && (r==1|| l==1 ) ){
                 _0x62:
0003a7 940e 0a7c 	CALL SUBOPT_0x29
0003a9 9711      	SBIW R26,1
0003aa f031      	BREQ _0x66
0003ab 91a0 055c 	LDS  R26,_b
0003ad 91b0 055d 	LDS  R27,_b+1
0003af 9711      	SBIW R26,1
0003b0 f449      	BRNE _0x68
                 _0x66:
0003b1 940e 0a6d 	CALL SUBOPT_0x26
0003b3 9711      	SBIW R26,1
0003b4 f021      	BREQ _0x69
0003b5 940e 0a72 	CALL SUBOPT_0x27
0003b7 9711      	SBIW R26,1
0003b8 f409      	BRNE _0x68
                 _0x69:
0003b9 c001      	RJMP _0x6B
                 _0x68:
0003ba c002      	RJMP _0x65
                 _0x6B:
                 ; 0000 0152      f=0;
0003bb 940e 0a92 	CALL SUBOPT_0x2D
                 ; 0000 0153      //b=0;
                 ; 0000 0154      }
                 ; 0000 0155      if (r==1 && l==1) {
                 _0x65:
0003bd 940e 0a6d 	CALL SUBOPT_0x26
0003bf 9711      	SBIW R26,1
0003c0 f421      	BRNE _0x6D
0003c1 940e 0a72 	CALL SUBOPT_0x27
0003c3 9711      	SBIW R26,1
0003c4 f009      	BREQ _0x6E
                 _0x6D:
0003c5 c016      	RJMP _0x6C
                 _0x6E:
                 ; 0000 0156      r=0;
0003c6 940e 0a99 	CALL SUBOPT_0x2E
                 ; 0000 0157      l=0;
0003c8 940e 0a8d 	CALL SUBOPT_0x2C
                 ; 0000 0158      if (min>=4 && min<=12) b=1;
0003ca 940e 0a1c 	CALL SUBOPT_0x1B
0003cc 9714      	SBIW R26,4
0003cd f024      	BRLT _0x70
0003ce 940e 0a1c 	CALL SUBOPT_0x1B
0003d0 971d      	SBIW R26,13
0003d1 f00c      	BRLT _0x71
                 _0x70:
0003d2 c007      	RJMP _0x6F
                 _0x71:
0003d3 e0e1      	LDI  R30,LOW(1)
0003d4 e0f0      	LDI  R31,HIGH(1)
0003d5 93e0 055c 	STS  _b,R30
0003d7 93f0 055d 	STS  _b+1,R31
                 ; 0000 0159      else f=1;
0003d9 c002      	RJMP _0x72
                 _0x6F:
0003da 940e 0a81 	CALL SUBOPT_0x2A
                 ; 0000 015A      }
                 _0x72:
                 ; 0000 015B 
                 ; 0000 015C 
                 ; 0000 015D    }
                 _0x6C:
0003dc 9508      	RET
                 ;
                 ;
                 ;
                 ;
                 ;
                 ;
                 ;
                 ;//    #asm("sei")
                 ;//    }
                 ;
                 ;   void compass() {
                 ; 0000 0168 void compass() {
                 _compass:
                 ; 0000 0169  #asm("cli")
0003dd 94f8      	cli
                 ; 0000 016A  #asm ("wdr");
0003de 95a8      	wdr
                 ; 0000 016B cmp=compass_read(1)-c;
0003df e0e1      	LDI  R30,LOW(1)
0003e0 93ea      	ST   -Y,R30
0003e1 940e 008a 	CALL _compass_read
0003e3 2e0e      	MOV  R0,R30
0003e4 2411      	CLR  R1
0003e5 e0a0      	LDI  R26,LOW(_c)
0003e6 e0b0      	LDI  R27,HIGH(_c)
0003e7 940e 0c3b 	CALL __EEPROMRDW
0003e9 01d0      	MOVW R26,R0
0003ea 1bae      	SUB  R26,R30
0003eb 0bbf      	SBC  R27,R31
0003ec 012d      	MOVW R4,R26
                 ; 0000 016C         lcd_gotoxy(12,0);
0003ed e0ec      	LDI  R30,LOW(12)
0003ee 940e 09ab 	CALL SUBOPT_0x8
                 ; 0000 016D       if(cmp<0) cmp=cmp;
0003f0 2400      	CLR  R0
0003f1 1440      	CP   R4,R0
0003f2 0450      	CPC  R5,R0
0003f3 f40c      	BRGE _0x73
0003f4 0122      	MOVW R4,R4
                 ; 0000 016E       if(cmp>128) cmp=cmp-255;
                 _0x73:
0003f5 e8e0      	LDI  R30,LOW(128)
0003f6 e0f0      	LDI  R31,HIGH(128)
0003f7 15e4      	CP   R30,R4
0003f8 05f5      	CPC  R31,R5
0003f9 f424      	BRGE _0x74
0003fa efef      	LDI  R30,LOW(255)
0003fb e0f0      	LDI  R31,HIGH(255)
                +
0003fc 1a4e     +SUB R4 , R30
0003fd 0a5f     +SBC R5 , R31
                 	__SUBWRR 4,5,30,31
                 ; 0000 016F       if(cmp<-128) cmp=cmp+255;
                 _0x74:
0003fe e8e0      	LDI  R30,LOW(65408)
0003ff efff      	LDI  R31,HIGH(65408)
000400 164e      	CP   R4,R30
000401 065f      	CPC  R5,R31
000402 f424      	BRGE _0x75
000403 01f2      	MOVW R30,R4
000404 50e1      	SUBI R30,LOW(-255)
000405 4fff      	SBCI R31,HIGH(-255)
000406 012f      	MOVW R4,R30
                 ; 0000 0170 
                 ; 0000 0171       if(cmp>=0)
                 _0x75:
000407 2400      	CLR  R0
000408 1440      	CP   R4,R0
000409 0450      	CPC  R5,R0
00040a f084      	BRLT _0x76
                 ; 0000 0172       {  #asm ("wdr");
00040b 95a8      	wdr
                 ; 0000 0173        lcd_gotoxy(11,0);
00040c e0eb      	LDI  R30,LOW(11)
00040d 940e 09ab 	CALL SUBOPT_0x8
                 ; 0000 0174       lcd_putchar('+');
00040f e2eb      	LDI  R30,LOW(43)
000410 93ea      	ST   -Y,R30
000411 940e 0906 	CALL _lcd_putchar
                 ; 0000 0175       lcd_putchar((cmp/100)%10+'0');
000413 01d2      	MOVW R26,R4
000414 940e 0987 	CALL SUBOPT_0x5
                 ; 0000 0176       lcd_putchar((cmp/10)%10+'0');
000416 01d2      	MOVW R26,R4
000417 940e 0994 	CALL SUBOPT_0x6
                 ; 0000 0177       lcd_putchar((cmp/1)%10+'0');
000419 01d2      	MOVW R26,R4
00041a c016      	RJMP _0x14B
                 ; 0000 0178       }
                 ; 0000 0179       else if(cmp<0)
                 _0x76:
00041b 2400      	CLR  R0
00041c 1440      	CP   R4,R0
00041d 0450      	CPC  R5,R0
00041e f4d4      	BRGE _0x78
                 ; 0000 017A       {  #asm ("wdr");
00041f 95a8      	wdr
                 ; 0000 017B        lcd_gotoxy(11,0);
000420 e0eb      	LDI  R30,LOW(11)
000421 940e 09ab 	CALL SUBOPT_0x8
                 ; 0000 017C       lcd_putchar('-');
000423 e2ed      	LDI  R30,LOW(45)
000424 93ea      	ST   -Y,R30
000425 940e 0906 	CALL _lcd_putchar
                 ; 0000 017D       lcd_putchar((-cmp/100)%10+'0');
000427 940e 0a9f 	CALL SUBOPT_0x2F
000429 940e 0987 	CALL SUBOPT_0x5
                 ; 0000 017E       lcd_putchar((-cmp/10)%10+'0');
00042b 940e 0a9f 	CALL SUBOPT_0x2F
00042d 940e 0994 	CALL SUBOPT_0x6
                 ; 0000 017F       lcd_putchar((-cmp/1)%10+'0');
00042f 940e 0a9f 	CALL SUBOPT_0x2F
                 _0x14B:
000431 e0ea      	LDI  R30,LOW(10)
000432 e0f0      	LDI  R31,HIGH(10)
000433 940e 0c1b 	CALL __MODW21
000435 96f0      	ADIW R30,48
000436 93ea      	ST   -Y,R30
000437 940e 0906 	CALL _lcd_putchar
                 ; 0000 0180       }
                 ; 0000 0181 
                 ; 0000 0182 //      if(25>cmp&&-25<cmp)   cmp=-2.5*cmp;
                 ; 0000 0183 //
                 ; 0000 0184 //     else                  cmp=-cmp;
                 ; 0000 0185 
                 ; 0000 0186 
                 ; 0000 0187 
                 ; 0000 0188 
                 ; 0000 0189 
                 ; 0000 018A ////abi
                 ; 0000 018B //if(cmp>-40 && cmp<60) cmp=-cmp*2;
                 ; 0000 018C // else cmp=-cmp*2.5;
                 ; 0000 018D if(cmp>-40 && cmp<10) cmp=-cmp*2;
                 _0x78:
000439 ede8      	LDI  R30,LOW(65496)
00043a efff      	LDI  R31,HIGH(65496)
00043b 15e4      	CP   R30,R4
00043c 05f5      	CPC  R31,R5
00043d f42c      	BRGE _0x7A
00043e e0ea      	LDI  R30,LOW(10)
00043f e0f0      	LDI  R31,HIGH(10)
000440 164e      	CP   R4,R30
000441 065f      	CPC  R5,R31
000442 f00c      	BRLT _0x7B
                 _0x7A:
000443 c006      	RJMP _0x79
                 _0x7B:
000444 01f2      	MOVW R30,R4
000445 940e 0be5 	CALL __ANEGW1
000447 0fee      	LSL  R30
000448 1fff      	ROL  R31
000449 c003      	RJMP _0x14C
                 ; 0000 018E else cmp=-cmp;
                 _0x79:
00044a 01f2      	MOVW R30,R4
00044b 940e 0be5 	CALL __ANEGW1
                 _0x14C:
00044d 012f      	MOVW R4,R30
                 ; 0000 018F 
                 ; 0000 0190 
                 ; 0000 0191       #asm ("wdr");
00044e 95a8      	wdr
                 ; 0000 0192       #asm("sei") }
00044f 9478      	sei
000450 9508      	RET
                 ;
                 ;
                 ;  void sahmi()
                 ; 0000 0196           {
                 _sahmi:
                 ; 0000 0197 
                 ; 0000 0198 
                 ; 0000 0199 
                 ; 0000 019A 
                 ; 0000 019B 
                 ; 0000 019C           if(SB<190)
000451 940e 09b0 	CALL SUBOPT_0x9
000453 3bae      	CPI  R26,LOW(0xBE)
000454 e0e0      	LDI  R30,HIGH(0xBE)
000455 07be      	CPC  R27,R30
000456 f41c      	BRGE _0x7D
                 ; 0000 019D            {
                 ; 0000 019E           motor(-128-RL+cmp,-255+RL+cmp,128+RL-cmp,255-RL+cmp);
000457 940e 0aa4 	CALL SUBOPT_0x30
                 ; 0000 019F            }
                 ; 0000 01A0 
                 ; 0000 01A1            ///////////////////////////////////////////////////////////////
                 ; 0000 01A2 //           else if(SB>190 && (RL>60 || RL<-60))
                 ; 0000 01A3 //           {
                 ; 0000 01A4           // RL=RL*3;
                 ; 0000 01A5 //          motor(255-RL+cmp,255+RL+cmp,-255+RL+cmp,-255-RL+cmp);
                 ; 0000 01A6 //          }
                 ; 0000 01A7            //////////////////////////////////////////////////////////////
                 ; 0000 01A8            else if(SB>190 && RL<-70 )
000459 c052      	RJMP _0x7E
                 _0x7D:
00045a 940e 0acc 	CALL SUBOPT_0x31
00045c f034      	BRLT _0x80
00045d 940e 09cd 	CALL SUBOPT_0xE
00045f 3baa      	CPI  R26,LOW(0xFFBA)
000460 efef      	LDI  R30,HIGH(0xFFBA)
000461 07be      	CPC  R27,R30
000462 f00c      	BRLT _0x81
                 _0x80:
000463 c00b      	RJMP _0x7F
                 _0x81:
                 ; 0000 01A9            {
                 ; 0000 01AA            motor((255+cmp)*0.5,(-255+cmp)*0.5,(-255+cmp)*0.5,(255+cmp)*0.5);
000464 940e 0ad1 	CALL SUBOPT_0x32
000466 940e 0ae3 	CALL SUBOPT_0x33
000468 940e 0ae3 	CALL SUBOPT_0x33
00046a 940e 0ad1 	CALL SUBOPT_0x32
00046c 940e 012e 	CALL _motor
                 ; 0000 01AB            }
                 ; 0000 01AC             else if(SB>190 && RL>70 )
00046e c03d      	RJMP _0x82
                 _0x7F:
00046f 940e 0acc 	CALL SUBOPT_0x31
000471 f034      	BRLT _0x84
000472 940e 09cd 	CALL SUBOPT_0xE
000474 34a7      	CPI  R26,LOW(0x47)
000475 e0e0      	LDI  R30,HIGH(0x47)
000476 07be      	CPC  R27,R30
000477 f40c      	BRGE _0x85
                 _0x84:
000478 c023      	RJMP _0x83
                 _0x85:
                 ; 0000 01AD            {
                 ; 0000 01AE            motor((-255+cmp)*0.5,(255+cmp)*0.5,(255+cmp)*0.5,(-255+cmp)*0.5);
000479 940e 0ae3 	CALL SUBOPT_0x33
00047b 940e 0ad1 	CALL SUBOPT_0x32
00047d 940e 0ad1 	CALL SUBOPT_0x32
00047f 940e 0ae3 	CALL SUBOPT_0x33
000481 940e 012e 	CALL _motor
                 ; 0000 01AF            if (adc[min]<60  &&( (adc[0]<60) || (adc[15]<60)|| (adc[1]<60)  )  )  t=0;}
000483 940e 09fd 	CALL SUBOPT_0x16
000485 940e 0a77 	CALL SUBOPT_0x28
000487 97fc      	SBIW R30,60
000488 f47c      	BRGE _0x87
000489 940e 0a17 	CALL SUBOPT_0x1A
00048b 97dc      	SBIW R26,60
00048c f054      	BRLT _0x88
00048d 940e 0a12 	CALL SUBOPT_0x19
00048f 97dc      	SBIW R26,60
000490 f034      	BRLT _0x88
                +
000491 91a0 0512+LDS R26 , _adc + 2
000493 91b0 0513+LDS R27 , _adc + 2 + 1
                 	__GETW2MN _adc,2
000495 97dc      	SBIW R26,60
000496 f40c      	BRGE _0x87
                 _0x88:
000497 c001      	RJMP _0x8A
                 _0x87:
000498 c002      	RJMP _0x86
                 _0x8A:
000499 24aa      	CLR  R10
00049a 24bb      	CLR  R11
                 _0x86:
                 ; 0000 01B0 
                 ; 0000 01B1           else  {  motor(0+cmp,0+cmp,0+cmp,0+cmp);
00049b c010      	RJMP _0x8B
                 _0x83:
00049c 940e 0af5 	CALL SUBOPT_0x34
00049e 940e 0af5 	CALL SUBOPT_0x34
0004a0 940e 0af5 	CALL SUBOPT_0x34
0004a2 940e 0af5 	CALL SUBOPT_0x34
0004a4 940e 012e 	CALL _motor
                 ; 0000 01B2           //t=0;
                 ; 0000 01B3 //          f=0 ;
                 ; 0000 01B4       b=0;
0004a6 e0e0      	LDI  R30,LOW(0)
0004a7 e0f0      	LDI  R31,HIGH(0)
0004a8 93e0 055c 	STS  _b,R30
0004aa 93f0 055d 	STS  _b+1,R31
                 ; 0000 01B5           }
                 _0x8B:
                 _0x82:
                 _0x7E:
                 ; 0000 01B6           }
0004ac 9508      	RET
                 ;      void follow ()
                 ; 0000 01B8     {
                 _follow:
                 ; 0000 01B9 
                 ; 0000 01BA           #asm("wdr") ;
0004ad 95a8      	wdr
                 ; 0000 01BB //         if(RL>0) RL=RL*1.5;
                 ; 0000 01BC //          else if(RL<0) RL=RL*4;
                 ; 0000 01BD 
                 ; 0000 01BE 
                 ; 0000 01BF           /////// 15-->13     2--->4      11--->9  10--->   8-->6
                 ; 0000 01C0 
                 ; 0000 01C1         if(min==0 ) {
0004ae 91e0 0530 	LDS  R30,_min
0004b0 91f0 0531 	LDS  R31,_min+1
0004b2 9730      	SBIW R30,0
0004b3 f4e9      	BRNE _0x8C
                 ; 0000 01C2 //        if(RL>=100 && h<50)  motor(255+cmp,-128+cmp,-255+cmp,128+cmp);
                 ; 0000 01C3 //     else if(RL<=-100 && h<50) motor(255+cmp,-64+cmp,-255+cmp,64+cmp);
                 ; 0000 01C4 
                 ; 0000 01C5 
                 ; 0000 01C6 
                 ; 0000 01C7 
                 ; 0000 01C8 
                 ; 0000 01C9 
                 ; 0000 01CA //        if(RL>=100)  motor(255+cmp,-128+cmp,-255+cmp,128+cmp);
                 ; 0000 01CB //       else if(RL<=-100) motor(255+cmp,0+cmp,-255+cmp,0+cmp);
                 ; 0000 01CC //        else
                 ; 0000 01CD 
                 ; 0000 01CE           if (h<150) {
0004b4 940e 0afa 	CALL SUBOPT_0x35
0004b6 f48c      	BRGE _0x8D
                 ; 0000 01CF                    if(RL>0 )  motor(-192,255,192,-255);
0004b7 940e 09d2 	CALL SUBOPT_0xF
0004b9 f41c      	BRGE _0x8E
0004ba 940e 0b02 	CALL SUBOPT_0x36
0004bc c005      	RJMP _0x14D
                 ; 0000 01D0                    else if(RL<=0 ) motor(255,-128,-255,128);
                 _0x8E:
0004bd 940e 09d2 	CALL SUBOPT_0xF
0004bf f034      	BRLT _0x90
0004c0 940e 0b13 	CALL SUBOPT_0x37
                 _0x14D:
0004c2 93fa      	ST   -Y,R31
0004c3 93ea      	ST   -Y,R30
0004c4 940e 012e 	CALL _motor
                 ; 0000 01D1 
                 ; 0000 01D2             #asm("wdr") ;}
                 _0x90:
0004c6 95a8      	wdr
                 ; 0000 01D3 
                 ; 0000 01D4             else
0004c7 c008      	RJMP _0x91
                 _0x8D:
                 ; 0000 01D5         motor(255+cmp,255+cmp,-255+cmp,-255+cmp);
0004c8 940e 0b23 	CALL SUBOPT_0x38
0004ca 940e 0b29 	CALL SUBOPT_0x39
0004cc 940e 0b29 	CALL SUBOPT_0x39
0004ce 940e 0b2f 	CALL SUBOPT_0x3A
                 ; 0000 01D6 
                 ; 0000 01D7           }
                 _0x91:
                 ; 0000 01D8 
                 ; 0000 01D9          else if(min==1)
0004d0 c0f1      	RJMP _0x92
                 _0x8C:
0004d1 940e 0a1c 	CALL SUBOPT_0x1B
0004d3 9711      	SBIW R26,1
0004d4 f4e9      	BRNE _0x93
                 ; 0000 01DA          {
                 ; 0000 01DB 
                 ; 0000 01DC 
                 ; 0000 01DD //         if(RL>=100)  motor(-128-RL+cmp,255+RL+cmp,128+RL+cmp,-255-RL+cmp);
                 ; 0000 01DE //        else if(RL<=-100) motor(255-RL+cmp,128+RL+cmp,-255+RL+cmp,-128-RL+cmp);
                 ; 0000 01DF //
                 ; 0000 01E0 
                 ; 0000 01E1 //     if(RL>=100 && h<50)  motor(255+cmp,-128+cmp,-255+cmp,128+cmp);
                 ; 0000 01E2 //     else if(RL<=-100 && h<50) motor(255+cmp,-64+cmp,-255+cmp,64+cmp);
                 ; 0000 01E3 //
                 ; 0000 01E4 //        else
                 ; 0000 01E5 
                 ; 0000 01E6          if (h<150) {
0004d5 940e 0afa 	CALL SUBOPT_0x35
0004d7 f48c      	BRGE _0x94
                 ; 0000 01E7                    if(RL>0 )  motor(-192,255,192,-255);
0004d8 940e 09d2 	CALL SUBOPT_0xF
0004da f41c      	BRGE _0x95
0004db 940e 0b02 	CALL SUBOPT_0x36
0004dd c005      	RJMP _0x14E
                 ; 0000 01E8                    else if(RL<=0 ) motor(255,-128,-255,128);
                 _0x95:
0004de 940e 09d2 	CALL SUBOPT_0xF
0004e0 f034      	BRLT _0x97
0004e1 940e 0b13 	CALL SUBOPT_0x37
                 _0x14E:
0004e3 93fa      	ST   -Y,R31
0004e4 93ea      	ST   -Y,R30
0004e5 940e 012e 	CALL _motor
                 ; 0000 01E9 
                 ; 0000 01EA             #asm("wdr") ;}
                 _0x97:
0004e7 95a8      	wdr
                 ; 0000 01EB 
                 ; 0000 01EC             else
0004e8 c008      	RJMP _0x98
                 _0x94:
                 ; 0000 01ED           motor(255+cmp,0+cmp,-255+cmp,0+cmp);
0004e9 940e 0b23 	CALL SUBOPT_0x38
0004eb 940e 0af5 	CALL SUBOPT_0x34
0004ed 940e 0b33 	CALL SUBOPT_0x3B
0004ef 940e 012e 	CALL _motor
                 ; 0000 01EE 
                 ; 0000 01EF 
                 ; 0000 01F0           }
                 _0x98:
                 ; 0000 01F1 
                 ; 0000 01F2 
                 ; 0000 01F3            //motor(255,128,-255,-128);
                 ; 0000 01F4          else if(min==2)     motor(128+cmp,-255+cmp,-128+cmp,255+cmp);     //motor(255,0,-255,0);
0004f1 c0d0      	RJMP _0x99
                 _0x93:
0004f2 940e 0a1c 	CALL SUBOPT_0x1B
0004f4 9712      	SBIW R26,2
0004f5 f439      	BRNE _0x9A
0004f6 940e 0b39 	CALL SUBOPT_0x3C
0004f8 940e 0b3d 	CALL SUBOPT_0x3D
0004fa 940e 012e 	CALL _motor
                 ; 0000 01F5          else if(min==3)     motor(0+cmp,-255+cmp,0+cmp,255+cmp);    //motor(255,-128,-255,128);
0004fc c0c5      	RJMP _0x9B
                 _0x9A:
0004fd 940e 0a1c 	CALL SUBOPT_0x1B
0004ff 9713      	SBIW R26,3
000500 f449      	BRNE _0x9C
000501 940e 0af5 	CALL SUBOPT_0x34
000503 940e 0b33 	CALL SUBOPT_0x3B
000505 940e 0b23 	CALL SUBOPT_0x38
000507 940e 012e 	CALL _motor
                 ; 0000 01F6          else if(min==4)     motor(0+cmp,-255+cmp,0+cmp,255+cmp);         //motor(255,-255,-255,255);
000509 c0b8      	RJMP _0x9D
                 _0x9C:
00050a 940e 0a1c 	CALL SUBOPT_0x1B
00050c 9714      	SBIW R26,4
00050d f449      	BRNE _0x9E
00050e 940e 0af5 	CALL SUBOPT_0x34
000510 940e 0b33 	CALL SUBOPT_0x3B
000512 940e 0b23 	CALL SUBOPT_0x38
000514 940e 012e 	CALL _motor
                 ; 0000 01F7          else if(min==5)     motor(-128+cmp,-255+cmp,128+cmp,255+cmp );    //motor(128,-255,-128,255);
000516 c0ab      	RJMP _0x9F
                 _0x9E:
000517 940e 0a1c 	CALL SUBOPT_0x1B
000519 9715      	SBIW R26,5
00051a f451      	BRNE _0xA0
00051b 01f2      	MOVW R30,R4
00051c 58e0      	SUBI R30,LOW(-65408)
00051d 40f0      	SBCI R31,HIGH(-65408)
00051e 940e 0b29 	CALL SUBOPT_0x39
000520 940e 0b45 	CALL SUBOPT_0x3E
000522 940e 012e 	CALL _motor
                 ; 0000 01F8          else if(min==6)     motor(-255+cmp,-255+cmp,255+cmp,255+cmp);    //motor(0,-255,0,255);
000524 c09d      	RJMP _0xA1
                 _0xA0:
000525 940e 0a1c 	CALL SUBOPT_0x1B
000527 9716      	SBIW R26,6
000528 f461      	BRNE _0xA2
000529 01f2      	MOVW R30,R4
00052a 5fef      	SUBI R30,LOW(-65281)
00052b 40f0      	SBCI R31,HIGH(-65281)
00052c 940e 0b4d 	CALL SUBOPT_0x3F
00052e 940e 0b23 	CALL SUBOPT_0x38
000530 940e 0b23 	CALL SUBOPT_0x38
000532 940e 012e 	CALL _motor
                 ; 0000 01F9          else if(min==7)     motor(-255+cmp,-128+cmp,255+cmp,128+cmp);    //motor(-128,-255,128,255);
000534 c08d      	RJMP _0xA3
                 _0xA2:
000535 940e 0a1c 	CALL SUBOPT_0x1B
000537 9717      	SBIW R26,7
000538 f459      	BRNE _0xA4
000539 01f2      	MOVW R30,R4
00053a 5fef      	SUBI R30,LOW(-65281)
00053b 40f0      	SBCI R31,HIGH(-65281)
00053c 940e 0b3d 	CALL SUBOPT_0x3D
00053e 01f2      	MOVW R30,R4
00053f 58e0      	SUBI R30,LOW(-128)
000540 4fff      	SBCI R31,HIGH(-128)
000541 940e 0b2f 	CALL SUBOPT_0x3A
                 ; 0000 01FA          else if(min==8)     motor(128+cmp,-255+cmp,-128+cmp,255+cmp);    //motor(-255,-255,255,255);
000543 c07e      	RJMP _0xA5
                 _0xA4:
000544 940e 0a1c 	CALL SUBOPT_0x1B
000546 9718      	SBIW R26,8
000547 f439      	BRNE _0xA6
000548 940e 0b39 	CALL SUBOPT_0x3C
00054a 940e 0b3d 	CALL SUBOPT_0x3D
00054c 940e 012e 	CALL _motor
                 ; 0000 01FB          else if(min==9)     motor(-128+cmp,-255+cmp,128+cmp,255+cmp);        //motor(-255,-128,255,128);
00054e c073      	RJMP _0xA7
                 _0xA6:
00054f 940e 0a1c 	CALL SUBOPT_0x1B
000551 9719      	SBIW R26,9
000552 f451      	BRNE _0xA8
000553 01f2      	MOVW R30,R4
000554 58e0      	SUBI R30,LOW(-65408)
000555 40f0      	SBCI R31,HIGH(-65408)
000556 940e 0b29 	CALL SUBOPT_0x39
000558 940e 0b45 	CALL SUBOPT_0x3E
00055a 940e 012e 	CALL _motor
                 ; 0000 01FC          else if(min==10)    motor(0+cmp,-255+cmp,0+cmp,255+cmp);    //motor(-255,0,255,0);
00055c c065      	RJMP _0xA9
                 _0xA8:
00055d 940e 0a1c 	CALL SUBOPT_0x1B
00055f 971a      	SBIW R26,10
000560 f449      	BRNE _0xAA
000561 940e 0af5 	CALL SUBOPT_0x34
000563 940e 0b33 	CALL SUBOPT_0x3B
000565 940e 0b23 	CALL SUBOPT_0x38
000567 940e 012e 	CALL _motor
                 ; 0000 01FD          else if(min==11)    motor(-255+cmp,-128+cmp,255+cmp,128+cmp);    //motor(-255,128,255,-128);
000569 c058      	RJMP _0xAB
                 _0xAA:
00056a 940e 0a1c 	CALL SUBOPT_0x1B
00056c 971b      	SBIW R26,11
00056d f459      	BRNE _0xAC
00056e 01f2      	MOVW R30,R4
00056f 5fef      	SUBI R30,LOW(-65281)
000570 40f0      	SBCI R31,HIGH(-65281)
000571 940e 0b3d 	CALL SUBOPT_0x3D
000573 01f2      	MOVW R30,R4
000574 58e0      	SUBI R30,LOW(-128)
000575 4fff      	SBCI R31,HIGH(-128)
000576 940e 0b2f 	CALL SUBOPT_0x3A
                 ; 0000 01FE          else if(min==12)    motor(-255+cmp,0+cmp,255+cmp,0+cmp);    //motor(-255,255,255,-255);
000578 c049      	RJMP _0xAD
                 _0xAC:
000579 940e 0a1c 	CALL SUBOPT_0x1B
00057b 971c      	SBIW R26,12
00057c f449      	BRNE _0xAE
00057d 940e 0b33 	CALL SUBOPT_0x3B
00057f 940e 0b23 	CALL SUBOPT_0x38
000581 940e 0af5 	CALL SUBOPT_0x34
000583 940e 012e 	CALL _motor
                 ; 0000 01FF          else if(min==13)    motor(-128+cmp,255+cmp,128+cmp,-255+cmp);         //motor(-128,255,128,-255);
000585 c03c      	RJMP _0xAF
                 _0xAE:
000586 940e 0a1c 	CALL SUBOPT_0x1B
000588 971d      	SBIW R26,13
000589 f439      	BRNE _0xB0
00058a 940e 0b52 	CALL SUBOPT_0x40
00058c 940e 0b39 	CALL SUBOPT_0x3C
00058e 940e 0b2f 	CALL SUBOPT_0x3A
                 ; 0000 0200          else if(min==14)    motor(-255+cmp,255+cmp,255+cmp,-255+cmp);    //motor(0,255,0,-255);
000590 c031      	RJMP _0xB1
                 _0xB0:
000591 940e 0a1c 	CALL SUBOPT_0x1B
000593 971e      	SBIW R26,14
000594 f479      	BRNE _0xB2
000595 01f2      	MOVW R30,R4
000596 5fef      	SUBI R30,LOW(-65281)
000597 40f0      	SBCI R31,HIGH(-65281)
000598 93fa      	ST   -Y,R31
000599 93ea      	ST   -Y,R30
00059a 940e 0b23 	CALL SUBOPT_0x38
00059c 940e 0b23 	CALL SUBOPT_0x38
00059e 01f2      	MOVW R30,R4
00059f 5fef      	SUBI R30,LOW(-65281)
0005a0 40f0      	SBCI R31,HIGH(-65281)
0005a1 940e 0b2f 	CALL SUBOPT_0x3A
                 ; 0000 0201 
                 ; 0000 0202 
                 ; 0000 0203          else if(min==15)
0005a3 c01e      	RJMP _0xB3
                 _0xB2:
0005a4 940e 0a1c 	CALL SUBOPT_0x1B
0005a6 971f      	SBIW R26,15
0005a7 f4d1      	BRNE _0xB4
                 ; 0000 0204          {
                 ; 0000 0205 
                 ; 0000 0206 //
                 ; 0000 0207 //        if(RL>=100 && h<60)  motor(-128+cmp,255+cmp,128+cmp,-255+cmp);
                 ; 0000 0208 //     else if(RL<=-100 && h<60) motor(255+cmp,-128+cmp,-255+cmp,128+cmp);
                 ; 0000 0209 //
                 ; 0000 020A //
                 ; 0000 020B //
                 ; 0000 020C //
                 ; 0000 020D //        else
                 ; 0000 020E                  if (h<150) {
0005a8 940e 0afa 	CALL SUBOPT_0x35
0005aa f484      	BRGE _0xB5
                 ; 0000 020F                    if(RL>0 )  motor(-192,255,192,-255);
0005ab 940e 09d2 	CALL SUBOPT_0xF
0005ad f41c      	BRGE _0xB6
0005ae 940e 0b02 	CALL SUBOPT_0x36
0005b0 c005      	RJMP _0x14F
                 ; 0000 0210                    else if(RL<=0 ) motor(255,-128,-255,128);
                 _0xB6:
0005b1 940e 09d2 	CALL SUBOPT_0xF
0005b3 f034      	BRLT _0xB8
0005b4 940e 0b13 	CALL SUBOPT_0x37
                 _0x14F:
0005b6 93fa      	ST   -Y,R31
0005b7 93ea      	ST   -Y,R30
0005b8 940e 012e 	CALL _motor
                 ; 0000 0211 
                 ; 0000 0212             #asm("wdr") ;}
                 _0xB8:
0005ba 95a8      	wdr
                 ; 0000 0213          motor(-128+cmp,255+cmp,128+cmp,-255+cmp); //motor(128,255,-128,-255);
                 _0xB5:
0005bb 940e 0b52 	CALL SUBOPT_0x40
0005bd 940e 0b39 	CALL SUBOPT_0x3C
0005bf 940e 0b2f 	CALL SUBOPT_0x3A
                 ; 0000 0214 
                 ; 0000 0215 
                 ; 0000 0216 
                 ; 0000 0217          #asm("wdr") ;
0005c1 95a8      	wdr
                 ; 0000 0218           }
                 ; 0000 0219           }
                 _0xB4:
                 _0xB3:
                 _0xB1:
                 _0xAF:
                 _0xAD:
                 _0xAB:
                 _0xA9:
                 _0xA7:
                 _0xA5:
                 _0xA3:
                 _0xA1:
                 _0x9F:
                 _0x9D:
                 _0x9B:
                 _0x99:
                 _0x92:
0005c2 9508      	RET
                 ;
                 ;
                 ;       void taghib(){
                 ; 0000 021C void taghib(){
                 ; 0000 021D 
                 ; 0000 021E         #asm("wdr") ;
                 ; 0000 021F           if(min==0)       motor(255,255,-255,-255);
                 ; 0000 0220          else if(min==1)   motor(255,128,-255,-128);
                 ; 0000 0221          else if(min==2)     motor(255,0,-255,0);
                 ; 0000 0222          else if(min==3)     motor(255,-128,-255,128);
                 ; 0000 0223          else if(min==4)    motor(255,-255,-255,255);
                 ; 0000 0224          else if(min==5)    motor(128,-255,-128,255);
                 ; 0000 0225          else if(min==6)     motor(0,-255,0,255);
                 ; 0000 0226          else if(min==7)     motor(-128,-255,128,255);
                 ; 0000 0227          else if(min==8)    motor(-255,-255,255,255);
                 ; 0000 0228          else if(min==9)     motor(-255,-128,255,128);
                 ; 0000 0229          else if(min==10)   motor(-255,0,255,0);
                 ; 0000 022A          else if(min==11)    motor(-255,128,255,-128);
                 ; 0000 022B          else if(min==12)   motor(-255,255,255,-255);
                 ; 0000 022C          else if(min==13)   motor(-128,255,128,-255);
                 ; 0000 022D          else if(min==14)   motor(0,255,0,-255);
                 ; 0000 022E          else if(min==15)  motor(128,255,-128,-255);
                 ; 0000 022F 
                 ; 0000 0230          #asm("wdr") ;
                 ; 0000 0231 
                 ; 0000 0232        }
                 ;        int outr=0,outl=0;
                 ;        void out () {
                 ; 0000 0234 void out () {
                 _out:
                 ; 0000 0235 //               sensor();
                 ; 0000 0236 //
                 ; 0000 0237 //                if(adc[mini]<350 &&(mini==3 || mini==2 || mini==1 || mini==0)){
                 ; 0000 0238 //          motor(0+cmp,0+cmp,0+cmp,0+cmp);
                 ; 0000 0239 //
                 ; 0000 023A //          if(adc[mini-1]<300  || adc[){
                 ; 0000 023B //          motor(-255+cmp,255+cmp,255+cmp,-255+cmp);
                 ; 0000 023C //          delay_ms(20);
                 ; 0000 023D //          }
                 ; 0000 023E //          }
                 ; 0000 023F //          if(adc[mini]<350 &&(mini==12 || mini==13 || mini==14 || mini==15)){
                 ; 0000 0240 //          motor(0+cmp,0+cmp,0+cmp,0+cmp);
                 ; 0000 0241 //
                 ; 0000 0242 //          if(adc[mini-1]<300 ){
                 ; 0000 0243 //          motor(255+cmp,-255+cmp,-255+cmp,255+cmp);
                 ; 0000 0244 //          delay_ms(20);
                 ; 0000 0245 //          }
                 ; 0000 0246 //          }
                 ; 0000 0247 // if (sum>550 && SR>310 && SL>310 )
                 ; 0000 0248 //t=2;
                 ; 0000 0249 //multi
                 ; 0000 024A //else if (sum>550 && (SR>310 || SL>310) && SB>250){
                 ; 0000 024B //putchar1(3);
                 ; 0000 024C //if (min>=0 && min<9 && t==3) motor (255+cmp,0+cmp,-255+cmp,0+cmp);  ////harekate 2
                 ; 0000 024D //else if (min>8 && min<16 && t==3)    motor(0+cmp,255+cmp,0+cmp,-255+cmp);  /////harekate 14
                 ; 0000 024E //}
                 ; 0000 024F 
                 ; 0000 0250 //
                 ; 0000 0251 //     else  if (sum>550 && (SR>310||SL>310) && SB<250 ) {
                 ; 0000 0252 //
                 ; 0000 0253 //      putchar1(2);
                 ; 0000 0254 //
                 ; 0000 0255 //     }
                 ; 0000 0256       if ((/*sum<550&&*/  SR>250 && SL<100) && ((min>0 && min<8 ) || min==0)  ) {
0005c3 940e 0982 	CALL SUBOPT_0x4
0005c5 3fab      	CPI  R26,LOW(0xFB)
0005c6 e0e0      	LDI  R30,HIGH(0xFB)
0005c7 07be      	CPC  R27,R30
0005c8 f02c      	BRLT _0xD9
0005c9 e6e4      	LDI  R30,LOW(100)
0005ca e0f0      	LDI  R31,HIGH(100)
0005cb 16ce      	CP   R12,R30
0005cc 06df      	CPC  R13,R31
0005cd f00c      	BRLT _0xDA
                 _0xD9:
0005ce c00e      	RJMP _0xDB
                 _0xDA:
0005cf 940e 0a1c 	CALL SUBOPT_0x1B
0005d1 940e 0d46 	CALL __CPW02
0005d3 f424      	BRGE _0xDC
0005d4 940e 0a1c 	CALL SUBOPT_0x1B
0005d6 9718      	SBIW R26,8
0005d7 f024      	BRLT _0xDE
                 _0xDC:
0005d8 940e 0a1c 	CALL SUBOPT_0x1B
0005da 9710      	SBIW R26,0
0005db f409      	BRNE _0xDB
                 _0xDE:
0005dc c001      	RJMP _0xE0
                 _0xDB:
0005dd c008      	RJMP _0xD8
                 _0xE0:
                 ; 0000 0257    #asm ("wdr");
0005de 95a8      	wdr
                 ; 0000 0258 //  motor(-255+cmp,255+cmp,255+cmp,-255+cmp);
                 ; 0000 0259 //  delay_ms(30);
                 ; 0000 025A //  sr=1;
                 ; 0000 025B //  while (min>=0 && min<9){ motor(0+cmp,0+cmp,0+cmp,0+cmp);
                 ; 0000 025C //  sensor();
                 ; 0000 025D //   compass();
                 ; 0000 025E //  #asm ("wdr");
                 ; 0000 025F //   }
                 ; 0000 0260    outr=1;
0005df e0e1      	LDI  R30,LOW(1)
0005e0 e0f0      	LDI  R31,HIGH(1)
0005e1 93e0 0560 	STS  _outr,R30
0005e3 93f0 0561 	STS  _outr+1,R31
                 ; 0000 0261    }
                 ; 0000 0262    ///////////
                 ; 0000 0263      else if ((/*sum<550 &&*/ SL>300 && SR<110 )&& ((min>7 && min<16 ) || min==0) ) {
0005e5 c021      	RJMP _0xE1
                 _0xD8:
0005e6 e2ec      	LDI  R30,LOW(300)
0005e7 e0f1      	LDI  R31,HIGH(300)
0005e8 15ec      	CP   R30,R12
0005e9 05fd      	CPC  R31,R13
0005ea f434      	BRGE _0xE3
0005eb 940e 0982 	CALL SUBOPT_0x4
0005ed 36ae      	CPI  R26,LOW(0x6E)
0005ee e0e0      	LDI  R30,HIGH(0x6E)
0005ef 07be      	CPC  R27,R30
0005f0 f00c      	BRLT _0xE4
                 _0xE3:
0005f1 c00d      	RJMP _0xE5
                 _0xE4:
0005f2 940e 0a1c 	CALL SUBOPT_0x1B
0005f4 9718      	SBIW R26,8
0005f5 f024      	BRLT _0xE6
0005f6 940e 0a1c 	CALL SUBOPT_0x1B
0005f8 9750      	SBIW R26,16
0005f9 f024      	BRLT _0xE8
                 _0xE6:
0005fa 940e 0a1c 	CALL SUBOPT_0x1B
0005fc 9710      	SBIW R26,0
0005fd f409      	BRNE _0xE5
                 _0xE8:
0005fe c001      	RJMP _0xEA
                 _0xE5:
0005ff c007      	RJMP _0xE2
                 _0xEA:
                 ; 0000 0264    #asm ("wdr");
000600 95a8      	wdr
                 ; 0000 0265 //  motor(255+cmp,-255+cmp,-255+cmp,255+cmp);
                 ; 0000 0266 //  delay_ms(30);
                 ; 0000 0267 //  sr=1;
                 ; 0000 0268 //  while (min>7 && min<16){ motor(0+cmp,0+cmp,0+cmp,0+cmp);
                 ; 0000 0269 //  sensor();
                 ; 0000 026A //   compass();
                 ; 0000 026B //  #asm ("wdr");
                 ; 0000 026C outl=1;
000601 e0e1      	LDI  R30,LOW(1)
000602 e0f0      	LDI  R31,HIGH(1)
000603 93e0 0562 	STS  _outl,R30
000605 93f0 0563 	STS  _outl+1,R31
                 ; 0000 026D    }
                 ; 0000 026E //   else {
                 ; 0000 026F // outl=0;
                 ; 0000 0270 // outr=0;
                 ; 0000 0271 //   }
                 ; 0000 0272    }
                 _0xE2:
                 _0xE1:
000607 9508      	RET
                 ;
                 ;
                 ;void bt () {
                 ; 0000 0275 void bt () {
                 _bt:
                 ; 0000 0276        if (outr==1 || outl==1 ||  (adc[min]<60  && h<60  )|| r==1 || l==1   ) {
000608 91a0 0560 	LDS  R26,_outr
00060a 91b0 0561 	LDS  R27,_outr+1
00060c 9711      	SBIW R26,1
00060d f0d1      	BREQ _0xEC
00060e 91a0 0562 	LDS  R26,_outl
000610 91b0 0563 	LDS  R27,_outl+1
000612 9711      	SBIW R26,1
000613 f0a1      	BREQ _0xEC
000614 940e 09fd 	CALL SUBOPT_0x16
000616 940e 0a77 	CALL SUBOPT_0x28
000618 97fc      	SBIW R30,60
000619 f434      	BRGE _0xED
00061a 91a0 055e 	LDS  R26,_h
00061c 91b0 055f 	LDS  R27,_h+1
00061e 97dc      	SBIW R26,60
00061f f044      	BRLT _0xEC
                 _0xED:
000620 940e 0a6d 	CALL SUBOPT_0x26
000622 9711      	SBIW R26,1
000623 f021      	BREQ _0xEC
000624 940e 0a72 	CALL SUBOPT_0x27
000626 9711      	SBIW R26,1
000627 f431      	BRNE _0xEB
                 _0xEC:
                 ; 0000 0277        putchar1('2');
000628 e3e2      	LDI  R30,LOW(50)
000629 93ea      	ST   -Y,R30
00062a 940e 010e 	CALL _putchar1
                 ; 0000 0278         #asm("wdr") ;
00062c 95a8      	wdr
                 ; 0000 0279        }
                 ; 0000 027A        else {
00062d c005      	RJMP _0xF0
                 _0xEB:
                 ; 0000 027B         putchar1('1');
00062e e3e1      	LDI  R30,LOW(49)
00062f 93ea      	ST   -Y,R30
000630 940e 010e 	CALL _putchar1
                 ; 0000 027C          #asm("wdr") ;
000632 95a8      	wdr
                 ; 0000 027D        }
                 _0xF0:
                 ; 0000 027E        }
000633 9508      	RET
                 ;
                 ;void main(void)
                 ; 0000 0281 {
                 _main:
                 ; 0000 0282 // Declare your local variables here
                 ; 0000 0283 
                 ; 0000 0284 // Input/Output Ports initialization
                 ; 0000 0285 // Port A initialization
                 ; 0000 0286 // Func7=In Func6=Out Func5=Out Func4=In Func3=Out Func2=Out Func1=Out Func0=Out
                 ; 0000 0287 // State7=T State6=0 State5=0 State4=T State3=0 State2=0 State1=0 State0=0
                 ; 0000 0288 PORTA=0x00;
000634 e0e0      	LDI  R30,LOW(0)
000635 bbeb      	OUT  0x1B,R30
                 ; 0000 0289 DDRA=0x6F;
000636 e6ef      	LDI  R30,LOW(111)
000637 bbea      	OUT  0x1A,R30
                 ; 0000 028A 
                 ; 0000 028B // Port B initialization
                 ; 0000 028C // Func7=Out Func6=Out Func5=Out Func4=Out Func3=In Func2=In Func1=In Func0=In
                 ; 0000 028D // State7=0 State6=0 State5=0 State4=0 State3=T State2=T State1=T State0=T
                 ; 0000 028E PORTB=0x00;
000638 e0e0      	LDI  R30,LOW(0)
000639 bbe8      	OUT  0x18,R30
                 ; 0000 028F DDRB=0xF0;
00063a efe0      	LDI  R30,LOW(240)
00063b bbe7      	OUT  0x17,R30
                 ; 0000 0290 
                 ; 0000 0291 // Port C initialization
                 ; 0000 0292 // Func7=In Func6=In Func5=In Func4=In Func3=In Func2=In Func1=In Func0=In
                 ; 0000 0293 // State7=T State6=T State5=T State4=T State3=T State2=T State1=T State0=T
                 ; 0000 0294 PORTC=0x00;
00063c e0e0      	LDI  R30,LOW(0)
00063d bbe5      	OUT  0x15,R30
                 ; 0000 0295 DDRC=0x00;
00063e bbe4      	OUT  0x14,R30
                 ; 0000 0296 
                 ; 0000 0297 // Port D initialization
                 ; 0000 0298 // Func7=Out Func6=Out Func5=Out Func4=Out Func3=In Func2=In Func1=In Func0=In
                 ; 0000 0299 // State7=0 State6=0 State5=0 State4=0 State3=T State2=T State1=T State0=T
                 ; 0000 029A PORTD=0x00;
00063f bbe2      	OUT  0x12,R30
                 ; 0000 029B DDRD=0xF0;
000640 efe0      	LDI  R30,LOW(240)
000641 bbe1      	OUT  0x11,R30
                 ; 0000 029C 
                 ; 0000 029D // Port E initialization
                 ; 0000 029E // Func7=In Func6=In Func5=In Func4=In Func3=In Func2=In Func1=In Func0=In
                 ; 0000 029F // State7=T State6=T State5=T State4=T State3=T State2=T State1=T State0=T
                 ; 0000 02A0 PORTE=0x00;
000642 e0e0      	LDI  R30,LOW(0)
000643 b9e3      	OUT  0x3,R30
                 ; 0000 02A1 DDRE=0x00;
000644 b9e2      	OUT  0x2,R30
                 ; 0000 02A2 
                 ; 0000 02A3 // Port F initialization
                 ; 0000 02A4 // Func7=In Func6=In Func5=In Func4=In Func3=In Func2=In Func1=In Func0=In
                 ; 0000 02A5 // State7=T State6=T State5=T State4=T State3=T State2=T State1=T State0=T
                 ; 0000 02A6 PORTF=0x00;
000645 93e0 0062 	STS  98,R30
                 ; 0000 02A7 DDRF=0x00;
000647 93e0 0061 	STS  97,R30
                 ; 0000 02A8 
                 ; 0000 02A9 // Port G initialization
                 ; 0000 02AA // Func4=In Func3=In Func2=In Func1=In Func0=In
                 ; 0000 02AB // State4=T State3=T State2=T State1=T State0=T
                 ; 0000 02AC PORTG=0x00;
000649 93e0 0065 	STS  101,R30
                 ; 0000 02AD DDRG=0x00;
00064b 93e0 0064 	STS  100,R30
                 ; 0000 02AE 
                 ; 0000 02AF // Timer/Counter 0 initialization
                 ; 0000 02B0 // Clock source: System Clock
                 ; 0000 02B1 // Clock value: 172.800 kHz
                 ; 0000 02B2 // Mode: Fast PWM top=FFh
                 ; 0000 02B3 // OC0 output: Non-Inverted PWM
                 ; 0000 02B4 ASSR=0x00;
00064d bfe0      	OUT  0x30,R30
                 ; 0000 02B5 TCCR0=0x6C;
00064e e6ec      	LDI  R30,LOW(108)
00064f bfe3      	OUT  0x33,R30
                 ; 0000 02B6 TCNT0=0x00;
000650 e0e0      	LDI  R30,LOW(0)
000651 bfe2      	OUT  0x32,R30
                 ; 0000 02B7 OCR0=0x00;
000652 bfe1      	OUT  0x31,R30
                 ; 0000 02B8 
                 ; 0000 02B9 // Timer/Counter 1 initialization
                 ; 0000 02BA // Clock source: System Clock
                 ; 0000 02BB // Clock value: 172.800 kHz
                 ; 0000 02BC // Mode: Fast PWM top=00FFh
                 ; 0000 02BD // OC1A output: Non-Inv.
                 ; 0000 02BE // OC1B output: Non-Inv.
                 ; 0000 02BF // OC1C output: Discon.
                 ; 0000 02C0 // Noise Canceler: Off
                 ; 0000 02C1 // Input Capture on Falling Edge
                 ; 0000 02C2 // Timer 1 Overflow Interrupt: Off
                 ; 0000 02C3 // Input Capture Interrupt: Off
                 ; 0000 02C4 // Compare A Match Interrupt: Off
                 ; 0000 02C5 // Compare B Match Interrupt: Off
                 ; 0000 02C6 // Compare C Match Interrupt: Off
                 ; 0000 02C7 TCCR1A=0xA1;
000653 eae1      	LDI  R30,LOW(161)
000654 bdef      	OUT  0x2F,R30
                 ; 0000 02C8 TCCR1B=0x0B;
000655 e0eb      	LDI  R30,LOW(11)
000656 bdee      	OUT  0x2E,R30
                 ; 0000 02C9 TCNT1H=0x00;
000657 e0e0      	LDI  R30,LOW(0)
000658 bded      	OUT  0x2D,R30
                 ; 0000 02CA TCNT1L=0x00;
000659 bdec      	OUT  0x2C,R30
                 ; 0000 02CB ICR1H=0x00;
00065a bde7      	OUT  0x27,R30
                 ; 0000 02CC ICR1L=0x00;
00065b bde6      	OUT  0x26,R30
                 ; 0000 02CD OCR1AH=0x00;
00065c bdeb      	OUT  0x2B,R30
                 ; 0000 02CE OCR1AL=0x00;
00065d bdea      	OUT  0x2A,R30
                 ; 0000 02CF OCR1BH=0x00;
00065e bde9      	OUT  0x29,R30
                 ; 0000 02D0 OCR1BL=0x00;
00065f bde8      	OUT  0x28,R30
                 ; 0000 02D1 OCR1CH=0x00;
000660 93e0 0079 	STS  121,R30
                 ; 0000 02D2 OCR1CL=0x00;
000662 93e0 0078 	STS  120,R30
                 ; 0000 02D3 
                 ; 0000 02D4 // Timer/Counter 2 initialization
                 ; 0000 02D5 // Clock source: System Clock
                 ; 0000 02D6 // Clock value: 172.800 kHz
                 ; 0000 02D7 // Mode: Fast PWM top=FFh
                 ; 0000 02D8 // OC2 output: Non-Inverted PWM
                 ; 0000 02D9 TCCR2=0x6B;
000664 e6eb      	LDI  R30,LOW(107)
000665 bde5      	OUT  0x25,R30
                 ; 0000 02DA TCNT2=0x00;
000666 e0e0      	LDI  R30,LOW(0)
000667 bde4      	OUT  0x24,R30
                 ; 0000 02DB OCR2=0x00;
000668 bde3      	OUT  0x23,R30
                 ; 0000 02DC 
                 ; 0000 02DD // Timer/Counter 3 initialization
                 ; 0000 02DE // Clock source: System Clock
                 ; 0000 02DF // Clock value: Timer 3 Stopped
                 ; 0000 02E0 // Mode: Normal top=FFFFh
                 ; 0000 02E1 // Noise Canceler: Off
                 ; 0000 02E2 // Input Capture on Falling Edge
                 ; 0000 02E3 // OC3A output: Discon.
                 ; 0000 02E4 // OC3B output: Discon.
                 ; 0000 02E5 // OC3C output: Discon.
                 ; 0000 02E6 // Timer 3 Overflow Interrupt: Off
                 ; 0000 02E7 // Input Capture Interrupt: Off
                 ; 0000 02E8 // Compare A Match Interrupt: Off
                 ; 0000 02E9 // Compare B Match Interrupt: Off
                 ; 0000 02EA // Compare C Match Interrupt: Off
                 ; 0000 02EB TCCR3A=0x00;
000669 93e0 008b 	STS  139,R30
                 ; 0000 02EC TCCR3B=0x00;
00066b 93e0 008a 	STS  138,R30
                 ; 0000 02ED TCNT3H=0x00;
00066d 93e0 0089 	STS  137,R30
                 ; 0000 02EE TCNT3L=0x00;
00066f 93e0 0088 	STS  136,R30
                 ; 0000 02EF ICR3H=0x00;
000671 93e0 0081 	STS  129,R30
                 ; 0000 02F0 ICR3L=0x00;
000673 93e0 0080 	STS  128,R30
                 ; 0000 02F1 OCR3AH=0x00;
000675 93e0 0087 	STS  135,R30
                 ; 0000 02F2 OCR3AL=0x00;
000677 93e0 0086 	STS  134,R30
                 ; 0000 02F3 OCR3BH=0x00;
000679 93e0 0085 	STS  133,R30
                 ; 0000 02F4 OCR3BL=0x00;
00067b 93e0 0084 	STS  132,R30
                 ; 0000 02F5 OCR3CH=0x00;
00067d 93e0 0083 	STS  131,R30
                 ; 0000 02F6 OCR3CL=0x00;
00067f 93e0 0082 	STS  130,R30
                 ; 0000 02F7 
                 ; 0000 02F8 // External Interrupt(s) initialization
                 ; 0000 02F9 // INT0: Off
                 ; 0000 02FA // INT1: Off
                 ; 0000 02FB // INT2: Off
                 ; 0000 02FC // INT3: Off
                 ; 0000 02FD // INT4: Off
                 ; 0000 02FE // INT5: Off
                 ; 0000 02FF // INT6: Off
                 ; 0000 0300 // INT7: Off
                 ; 0000 0301 EICRA=0x00;
000681 93e0 006a 	STS  106,R30
                 ; 0000 0302 EICRB=0x00;
000683 bfea      	OUT  0x3A,R30
                 ; 0000 0303 EIMSK=0x00;
000684 bfe9      	OUT  0x39,R30
                 ; 0000 0304 
                 ; 0000 0305 // Timer(s)/Counter(s) Interrupt(s) initialization
                 ; 0000 0306 TIMSK=0x00;
000685 bfe7      	OUT  0x37,R30
                 ; 0000 0307 ETIMSK=0x00;
000686 93e0 007d 	STS  125,R30
                 ; 0000 0308 
                 ; 0000 0309 // USART1 initialization
                 ; 0000 030A // Communication Parameters: 8 Data, 1 Stop, No Parity
                 ; 0000 030B // USART1 Receiver: On
                 ; 0000 030C // USART1 Transmitter: On
                 ; 0000 030D // USART1 Mode: Asynchronous
                 ; 0000 030E // USART1 Baud Rate: 9600
                 ; 0000 030F UCSR1A=0x00;
000688 93e0 009b 	STS  155,R30
                 ; 0000 0310 UCSR1B=0x98;
00068a e9e8      	LDI  R30,LOW(152)
00068b 93e0 009a 	STS  154,R30
                 ; 0000 0311 UCSR1C=0x06;
00068d e0e6      	LDI  R30,LOW(6)
00068e 93e0 009d 	STS  157,R30
                 ; 0000 0312 UBRR1H=0x00;
000690 e0e0      	LDI  R30,LOW(0)
000691 93e0 0098 	STS  152,R30
                 ; 0000 0313 UBRR1L=0x47;
000693 e4e7      	LDI  R30,LOW(71)
000694 93e0 0099 	STS  153,R30
                 ; 0000 0314 
                 ; 0000 0315 // Analog Comparator initialization
                 ; 0000 0316 // Analog Comparator: Off
                 ; 0000 0317 // Analog Comparator Input Capture by Timer/Counter 1: Off
                 ; 0000 0318 ACSR=0x80;
000696 e8e0      	LDI  R30,LOW(128)
000697 b9e8      	OUT  0x8,R30
                 ; 0000 0319 SFIOR=0x00;
000698 e0e0      	LDI  R30,LOW(0)
000699 bde0      	OUT  0x20,R30
                 ; 0000 031A 
                 ; 0000 031B // ADC initialization
                 ; 0000 031C // ADC Clock frequency: 691.200 kHz
                 ; 0000 031D // ADC Voltage Reference: AVCC pin
                 ; 0000 031E ADMUX=ADC_VREF_TYPE & 0xff;
00069a e4e0      	LDI  R30,LOW(64)
00069b b9e7      	OUT  0x7,R30
                 ; 0000 031F ADCSRA=0x84;
00069c e8e4      	LDI  R30,LOW(132)
00069d b9e6      	OUT  0x6,R30
                 ; 0000 0320 
                 ; 0000 0321 // I2C Bus initialization
                 ; 0000 0322 i2c_init();
00069e 940e 0b87 	CALL _i2c_init
                 ; 0000 0323 
                 ; 0000 0324 // LCD module initialization
                 ; 0000 0325 lcd_init(16);
0006a0 e1e0      	LDI  R30,LOW(16)
0006a1 93ea      	ST   -Y,R30
0006a2 940e 0937 	CALL _lcd_init
                 ; 0000 0326 
                 ; 0000 0327 // Watchdog Timer initialization
                 ; 0000 0328 // Watchdog Timer Prescaler: OSC/16k
                 ; 0000 0329 #pragma optsize-
                 ; 0000 032A WDTCR=0x18;
0006a4 e1e8      	LDI  R30,LOW(24)
0006a5 bde1      	OUT  0x21,R30
                 ; 0000 032B WDTCR=0x08;
0006a6 e0e8      	LDI  R30,LOW(8)
0006a7 bde1      	OUT  0x21,R30
                 ; 0000 032C #ifdef _OPTIMIZE_SIZE_
                 ; 0000 032D #pragma optsize+
                 ; 0000 032E #endif
                 ; 0000 032F 
                 ; 0000 0330 // Global enable interrupts
                 ; 0000 0331 #asm("sei")
0006a8 9478      	sei
                 ; 0000 0332 if (PINA.4==1){
0006a9 e0a0      	LDI  R26,0
0006aa 99cc      	SBIC 0x19,4
0006ab e0a1      	LDI  R26,1
0006ac 30a1      	CPI  R26,LOW(0x1)
0006ad f479      	BRNE _0xF1
                 ; 0000 0333 c=compass_read(1);
0006ae e0e1      	LDI  R30,LOW(1)
0006af 93ea      	ST   -Y,R30
0006b0 940e 008a 	CALL _compass_read
0006b2 e0a0      	LDI  R26,LOW(_c)
0006b3 e0b0      	LDI  R27,HIGH(_c)
0006b4 e0f0      	LDI  R31,0
0006b5 940e 0c4b 	CALL __EEPROMWRW
                 ; 0000 0334 delay_ms(1000);
0006b7 eee8      	LDI  R30,LOW(1000)
0006b8 e0f3      	LDI  R31,HIGH(1000)
0006b9 93fa      	ST   -Y,R31
0006ba 93ea      	ST   -Y,R30
0006bb 940e 0bd9 	CALL _delay_ms
                 ; 0000 0335 }
                 ; 0000 0336 #asm("wdr") ;
                 _0xF1:
0006bd 95a8      	wdr
                 ; 0000 0337 
                 ; 0000 0338 while (1)
                 _0xF2:
                 ; 0000 0339       {
                 ; 0000 033A 
                 ; 0000 033B       compass();
0006be 940e 0b58 	CALL SUBOPT_0x41
                 ; 0000 033C       sensor();
                 ; 0000 033D       sharp();
                 ; 0000 033E       out();
0006c0 df02      	RCALL _out
                 ; 0000 033F       bt();
0006c1 df46      	RCALL _bt
                 ; 0000 0340 
                 ; 0000 0341 
                 ; 0000 0342 
                 ; 0000 0343 
                 ; 0000 0344        if(adc[min]<900 && (t==1 || t==0)  ){
0006c2 940e 09fd 	CALL SUBOPT_0x16
0006c4 940e 0a77 	CALL SUBOPT_0x28
0006c6 38e4      	CPI  R30,LOW(0x384)
0006c7 e0a3      	LDI  R26,HIGH(0x384)
0006c8 07fa      	CPC  R31,R26
0006c9 f454      	BRGE _0xF6
0006ca e0e1      	LDI  R30,LOW(1)
0006cb e0f0      	LDI  R31,HIGH(1)
0006cc 15ea      	CP   R30,R10
0006cd 05fb      	CPC  R31,R11
0006ce f021      	BREQ _0xF7
0006cf 2400      	CLR  R0
0006d0 140a      	CP   R0,R10
0006d1 040b      	CPC  R0,R11
0006d2 f409      	BRNE _0xF6
                 _0xF7:
0006d3 c001      	RJMP _0xF9
                 _0xF6:
0006d4 c003      	RJMP _0xF5
                 _0xF9:
                 ; 0000 0345        follow();
0006d5 ddd7      	RCALL _follow
                 ; 0000 0346        #asm("wdr") ;}
0006d6 95a8      	wdr
                 ; 0000 0347       else if (adc[min]>900  || t==2 ){
0006d7 c00f      	RJMP _0xFA
                 _0xF5:
0006d8 940e 09fd 	CALL SUBOPT_0x16
0006da 940e 0a77 	CALL SUBOPT_0x28
0006dc 38e5      	CPI  R30,LOW(0x385)
0006dd e0a3      	LDI  R26,HIGH(0x385)
0006de 07fa      	CPC  R31,R26
0006df f42c      	BRGE _0xFC
0006e0 e0e2      	LDI  R30,LOW(2)
0006e1 e0f0      	LDI  R31,HIGH(2)
0006e2 15ea      	CP   R30,R10
0006e3 05fb      	CPC  R31,R11
0006e4 f411      	BRNE _0xFB
                 _0xFC:
                 ; 0000 0348 
                 ; 0000 0349        sahmi();
0006e5 940e 0451 	CALL _sahmi
                 ; 0000 034A 
                 ; 0000 034B 
                 ; 0000 034C 
                 ; 0000 034D       }
                 ; 0000 034E 
                 ; 0000 034F 
                 ; 0000 0350  //////////////////////////// //chap
                 ; 0000 0351  while (l==1  || outl==1) {
                 _0xFB:
                 _0xFA:
                 _0xFE:
0006e7 940e 0a72 	CALL SUBOPT_0x27
0006e9 9711      	SBIW R26,1
0006ea f039      	BREQ _0x101
0006eb 91a0 0562 	LDS  R26,_outl
0006ed 91b0 0563 	LDS  R27,_outl+1
0006ef 9711      	SBIW R26,1
0006f0 f009      	BREQ _0x101
0006f1 c059      	RJMP _0x100
                 _0x101:
                 ; 0000 0352  //////////////////////////putchar1('2');
                 ; 0000 0353  if(kaf[15]<400 ) {
0006f2 940e 0a45 	CALL SUBOPT_0x21
0006f4 f45c      	BRGE _0x103
                 ; 0000 0354 motor(0+cmp/2,0+cmp/2,0+cmp/2,0+cmp/2);
0006f5 01d2      	MOVW R26,R4
0006f6 940e 09c2 	CALL SUBOPT_0xC
0006f8 9630      	ADIW R30,0
0006f9 940e 0b4d 	CALL SUBOPT_0x3F
0006fb 940e 0b4d 	CALL SUBOPT_0x3F
0006fd 940e 012e 	CALL _motor
                 ; 0000 0355  #asm("wdr") ;
0006ff 95a8      	wdr
                 ; 0000 0356 }
                 ; 0000 0357 
                 ; 0000 0358  if(kaf[14]<400 ) {
                 _0x103:
000700 940e 0a3d 	CALL SUBOPT_0x20
000702 f45c      	BRGE _0x104
                 ; 0000 0359 
                 ; 0000 035A     motor(0+cmp/2,0+cmp/2,0+cmp/2,0+cmp/2);
000703 01d2      	MOVW R26,R4
000704 940e 09c2 	CALL SUBOPT_0xC
000706 9630      	ADIW R30,0
000707 940e 0b4d 	CALL SUBOPT_0x3F
000709 940e 0b4d 	CALL SUBOPT_0x3F
00070b 940e 012e 	CALL _motor
                 ; 0000 035B  #asm("wdr") ;
00070d 95a8      	wdr
                 ; 0000 035C }
                 ; 0000 035D 
                 ; 0000 035E 
                 ; 0000 035F  if(( kaf[12]<400  || kaf[13]<400) &&( (min>=8 && min<16) || min==0) ){
                 _0x104:
00070e 940e 0a2d 	CALL SUBOPT_0x1E
000710 f01c      	BRLT _0x106
000711 940e 0a35 	CALL SUBOPT_0x1F
000713 f46c      	BRGE _0x108
                 _0x106:
000714 940e 0a1c 	CALL SUBOPT_0x1B
000716 9718      	SBIW R26,8
000717 f024      	BRLT _0x109
000718 940e 0a1c 	CALL SUBOPT_0x1B
00071a 9750      	SBIW R26,16
00071b f024      	BRLT _0x10B
                 _0x109:
00071c 940e 0a1c 	CALL SUBOPT_0x1B
00071e 9710      	SBIW R26,0
00071f f409      	BRNE _0x108
                 _0x10B:
000720 c001      	RJMP _0x10D
                 _0x108:
000721 c00c      	RJMP _0x105
                 _0x10D:
                 ; 0000 0360 motor((255+cmp)/4,(-255+cmp)/4,(-255+cmp)/4,(255+cmp)/4);
000722 940e 0b5e 	CALL SUBOPT_0x42
000724 940e 0b66 	CALL SUBOPT_0x43
000726 940e 0b66 	CALL SUBOPT_0x43
000728 940e 0b70 	CALL SUBOPT_0x44
00072a 940e 0b2f 	CALL SUBOPT_0x3A
                 ; 0000 0361 
                 ; 0000 0362  #asm("wdr") ;
00072c 95a8      	wdr
                 ; 0000 0363 
                 ; 0000 0364  }
                 ; 0000 0365 
                 ; 0000 0366 
                 ; 0000 0367  else if (min>0 && min<8   ) {
00072d c019      	RJMP _0x10E
                 _0x105:
00072e 940e 0a1c 	CALL SUBOPT_0x1B
000730 940e 0d46 	CALL __CPW02
000732 f424      	BRGE _0x110
000733 940e 0a1c 	CALL SUBOPT_0x1B
000735 9718      	SBIW R26,8
000736 f00c      	BRLT _0x111
                 _0x110:
000737 c00f      	RJMP _0x10F
                 _0x111:
                 ; 0000 0368    l=0;
000738 e0e0      	LDI  R30,LOW(0)
000739 e0f0      	LDI  R31,HIGH(0)
00073a 940e 0a8d 	CALL SUBOPT_0x2C
                 ; 0000 0369    outl=0;
00073c e0e0      	LDI  R30,LOW(0)
00073d e0f0      	LDI  R31,HIGH(0)
00073e 93e0 0562 	STS  _outl,R30
000740 93f0 0563 	STS  _outl+1,R31
                 ; 0000 036A     sensor();
000742 940e 023a 	CALL _sensor
                 ; 0000 036B  follow();
000744 940e 04ad 	CALL _follow
                 ; 0000 036C  #asm("wdr") ;
000746 95a8      	wdr
                 ; 0000 036D  }
                 ; 0000 036E 
                 ; 0000 036F 
                 ; 0000 0370 
                 ; 0000 0371  #asm("wdr") ;
                 _0x10F:
                 _0x10E:
000747 95a8      	wdr
                 ; 0000 0372  compass();
000748 940e 0b58 	CALL SUBOPT_0x41
                 ; 0000 0373  sensor();
                 ; 0000 0374  sharp();
                 ; 0000 0375  }
00074a cf9c      	RJMP _0xFE
                 _0x100:
                 ; 0000 0376 
                 ; 0000 0377 
                 ; 0000 0378 
                 ; 0000 0379 
                 ; 0000 037A  /////////////////////////// rast
                 ; 0000 037B  while (r==1 || outr==1) {
                 _0x112:
00074b 940e 0a6d 	CALL SUBOPT_0x26
00074d 9711      	SBIW R26,1
00074e f039      	BREQ _0x115
00074f 91a0 0560 	LDS  R26,_outr
000751 91b0 0561 	LDS  R27,_outr+1
000753 9711      	SBIW R26,1
000754 f009      	BREQ _0x115
000755 c056      	RJMP _0x114
                 _0x115:
                 ; 0000 037C 
                 ; 0000 037D  if(kaf[3]<400 ) {
000756 940e 0a65 	CALL SUBOPT_0x25
000758 f45c      	BRGE _0x117
                 ; 0000 037E motor(0+cmp/2,0+cmp/2,0+cmp/2,0+cmp/2);
000759 01d2      	MOVW R26,R4
00075a 940e 09c2 	CALL SUBOPT_0xC
00075c 9630      	ADIW R30,0
00075d 940e 0b4d 	CALL SUBOPT_0x3F
00075f 940e 0b4d 	CALL SUBOPT_0x3F
000761 940e 012e 	CALL _motor
                 ; 0000 037F  #asm("wdr") ;
000763 95a8      	wdr
                 ; 0000 0380 }
                 ; 0000 0381 
                 ; 0000 0382  if(kaf[2]<400 ) {
                 _0x117:
000764 940e 0a5d 	CALL SUBOPT_0x24
000766 f45c      	BRGE _0x118
                 ; 0000 0383 
                 ; 0000 0384     motor(0+cmp/2,0+cmp/2,0+cmp/2,0+cmp/2);
000767 01d2      	MOVW R26,R4
000768 940e 09c2 	CALL SUBOPT_0xC
00076a 9630      	ADIW R30,0
00076b 940e 0b4d 	CALL SUBOPT_0x3F
00076d 940e 0b4d 	CALL SUBOPT_0x3F
00076f 940e 012e 	CALL _motor
                 ; 0000 0385  #asm("wdr") ;
000771 95a8      	wdr
                 ; 0000 0386 }
                 ; 0000 0387 
                 ; 0000 0388 
                 ; 0000 0389  if(( kaf[0]<400  || kaf[1]<400) &&( min>=0 && min<=8) ){
                 _0x118:
000772 940e 0a4d 	CALL SUBOPT_0x22
000774 f01c      	BRLT _0x11A
000775 940e 0a55 	CALL SUBOPT_0x23
000777 f454      	BRGE _0x11C
                 _0x11A:
000778 91a0 0531 	LDS  R26,_min+1
00077a 23aa      	TST  R26
00077b f022      	BRMI _0x11D
00077c 940e 0a1c 	CALL SUBOPT_0x1B
00077e 9719      	SBIW R26,9
00077f f00c      	BRLT _0x11E
                 _0x11D:
000780 c001      	RJMP _0x11C
                 _0x11E:
000781 c001      	RJMP _0x11F
                 _0x11C:
000782 c011      	RJMP _0x119
                 _0x11F:
                 ; 0000 038A motor((-255+cmp)/4,(255+cmp)/4,(255+cmp)/4,(-255+cmp)/4);
000783 01d2      	MOVW R26,R4
000784 5faf      	SUBI R26,LOW(-65281)
000785 40b0      	SBCI R27,HIGH(-65281)
000786 e0e4      	LDI  R30,LOW(4)
000787 e0f0      	LDI  R31,HIGH(4)
000788 940e 0c16 	CALL __DIVW21
00078a 940e 0b70 	CALL SUBOPT_0x44
00078c 940e 0b70 	CALL SUBOPT_0x44
00078e 940e 0b66 	CALL SUBOPT_0x43
000790 940e 0b2f 	CALL SUBOPT_0x3A
                 ; 0000 038B 
                 ; 0000 038C  #asm("wdr") ;
000792 95a8      	wdr
                 ; 0000 038D 
                 ; 0000 038E  }
                 ; 0000 038F 
                 ; 0000 0390 
                 ; 0000 0391  else if (min>8 && min<16   ) {
000793 c014      	RJMP _0x120
                 _0x119:
000794 940e 0a1c 	CALL SUBOPT_0x1B
000796 9719      	SBIW R26,9
000797 f024      	BRLT _0x122
000798 940e 0a1c 	CALL SUBOPT_0x1B
00079a 9750      	SBIW R26,16
00079b f00c      	BRLT _0x123
                 _0x122:
00079c c00b      	RJMP _0x121
                 _0x123:
                 ; 0000 0392    r=0;
00079d 940e 0a99 	CALL SUBOPT_0x2E
                 ; 0000 0393    outr=0;
00079f 93e0 0560 	STS  _outr,R30
0007a1 93f0 0561 	STS  _outr+1,R31
                 ; 0000 0394     sensor();
0007a3 940e 023a 	CALL _sensor
                 ; 0000 0395  follow();
0007a5 940e 04ad 	CALL _follow
                 ; 0000 0396  #asm("wdr") ;
0007a7 95a8      	wdr
                 ; 0000 0397  }
                 ; 0000 0398 
                 ; 0000 0399 
                 ; 0000 039A 
                 ; 0000 039B  #asm("wdr") ;
                 _0x121:
                 _0x120:
0007a8 95a8      	wdr
                 ; 0000 039C  compass();
0007a9 940e 0b58 	CALL SUBOPT_0x41
                 ; 0000 039D  sensor();
                 ; 0000 039E  sharp();
                 ; 0000 039F  }
0007ab cf9f      	RJMP _0x112
                 _0x114:
                 ; 0000 03A0 
                 ; 0000 03A1  while(f==1) {
                 _0x124:
0007ac 940e 0a7c 	CALL SUBOPT_0x29
0007ae 9711      	SBIW R26,1
0007af f011      	BREQ PC+3
0007b0 940c 084a 	JMP _0x126
                 ; 0000 03A2            if(SB<190)
0007b2 940e 09b0 	CALL SUBOPT_0x9
0007b4 3bae      	CPI  R26,LOW(0xBE)
0007b5 e0e0      	LDI  R30,HIGH(0xBE)
0007b6 07be      	CPC  R27,R30
0007b7 f424      	BRGE _0x127
                 ; 0000 03A3            {
                 ; 0000 03A4           motor(-128-RL+cmp,-255+RL+cmp,128+RL-cmp,255-RL+cmp);
0007b8 940e 0aa4 	CALL SUBOPT_0x30
                 ; 0000 03A5            #asm("wdr") ;
0007ba 95a8      	wdr
                 ; 0000 03A6            }
                 ; 0000 03A7            /////////////////////////////////////////////////////
                 ; 0000 03A8            else if(SB>190 && (RL>60 || RL<-60))
0007bb c088      	RJMP _0x128
                 _0x127:
0007bc 940e 0acc 	CALL SUBOPT_0x31
0007be f05c      	BRLT _0x12A
0007bf 940e 09cd 	CALL SUBOPT_0xE
0007c1 97dd      	SBIW R26,61
0007c2 f434      	BRGE _0x12B
0007c3 940e 09cd 	CALL SUBOPT_0xE
0007c5 3ca4      	CPI  R26,LOW(0xFFC4)
0007c6 efef      	LDI  R30,HIGH(0xFFC4)
0007c7 07be      	CPC  R27,R30
0007c8 f40c      	BRGE _0x12A
                 _0x12B:
0007c9 c001      	RJMP _0x12D
                 _0x12A:
0007ca c023      	RJMP _0x129
                 _0x12D:
                 ; 0000 03A9            {
                 ; 0000 03AA            RL=RL*3;
0007cb 940e 09cd 	CALL SUBOPT_0xE
0007cd e0e3      	LDI  R30,LOW(3)
0007ce e0f0      	LDI  R31,HIGH(3)
0007cf 940e 0bfe 	CALL __MULW12
0007d1 940e 09c7 	CALL SUBOPT_0xD
                 ; 0000 03AB           motor(255-RL+cmp,255+RL+cmp,-255+RL+cmp,-255-RL+cmp);
0007d3 efef      	LDI  R30,LOW(255)
0007d4 e0f0      	LDI  R31,HIGH(255)
0007d5 1bea      	SUB  R30,R26
0007d6 0bfb      	SBC  R31,R27
0007d7 940e 0b73 	CALL SUBOPT_0x45
0007d9 50e1      	SUBI R30,LOW(-255)
0007da 4fff      	SBCI R31,HIGH(-255)
0007db 940e 0b73 	CALL SUBOPT_0x45
0007dd 5fef      	SUBI R30,LOW(-65281)
0007de 40f0      	SBCI R31,HIGH(-65281)
0007df 0de4      	ADD  R30,R4
0007e0 1df5      	ADC  R31,R5
0007e1 93fa      	ST   -Y,R31
0007e2 93ea      	ST   -Y,R30
0007e3 940e 09cd 	CALL SUBOPT_0xE
0007e5 e0e1      	LDI  R30,LOW(65281)
0007e6 efff      	LDI  R31,HIGH(65281)
0007e7 1bea      	SUB  R30,R26
0007e8 0bfb      	SBC  R31,R27
0007e9 0de4      	ADD  R30,R4
0007ea 1df5      	ADC  R31,R5
0007eb 940e 0b2f 	CALL SUBOPT_0x3A
                 ; 0000 03AC           }
                 ; 0000 03AD            ////////////////////////////////////////////////////
                 ; 0000 03AE            else if(SB>160 && RL<-70 )
0007ed c056      	RJMP _0x12E
                 _0x129:
0007ee 940e 09b0 	CALL SUBOPT_0x9
0007f0 3aa1      	CPI  R26,LOW(0xA1)
0007f1 e0e0      	LDI  R30,HIGH(0xA1)
0007f2 07be      	CPC  R27,R30
0007f3 f034      	BRLT _0x130
0007f4 940e 09cd 	CALL SUBOPT_0xE
0007f6 3baa      	CPI  R26,LOW(0xFFBA)
0007f7 efef      	LDI  R30,HIGH(0xFFBA)
0007f8 07be      	CPC  R27,R30
0007f9 f00c      	BRLT _0x131
                 _0x130:
0007fa c00b      	RJMP _0x12F
                 _0x131:
                 ; 0000 03AF            {
                 ; 0000 03B0            motor((255+cmp)*0.5,(-255+cmp)*0.5,(-255+cmp)*0.5,(255+cmp)*0.5);
0007fb 940e 0ad1 	CALL SUBOPT_0x32
0007fd 940e 0ae3 	CALL SUBOPT_0x33
0007ff 940e 0ae3 	CALL SUBOPT_0x33
000801 940e 0ad1 	CALL SUBOPT_0x32
000803 940e 012e 	CALL _motor
                 ; 0000 03B1            }
                 ; 0000 03B2             else if(SB>160 && RL>70 )
000805 c03e      	RJMP _0x132
                 _0x12F:
000806 940e 09b0 	CALL SUBOPT_0x9
000808 3aa1      	CPI  R26,LOW(0xA1)
000809 e0e0      	LDI  R30,HIGH(0xA1)
00080a 07be      	CPC  R27,R30
00080b f034      	BRLT _0x134
00080c 940e 09cd 	CALL SUBOPT_0xE
00080e 34a7      	CPI  R26,LOW(0x47)
00080f e0e0      	LDI  R30,HIGH(0x47)
000810 07be      	CPC  R27,R30
000811 f40c      	BRGE _0x135
                 _0x134:
000812 c023      	RJMP _0x133
                 _0x135:
                 ; 0000 03B3            {
                 ; 0000 03B4            motor((-255+cmp)*0.5,(255+cmp)*0.5,(255+cmp)*0.5,(-255+cmp)*0.5);
000813 940e 0ae3 	CALL SUBOPT_0x33
000815 940e 0ad1 	CALL SUBOPT_0x32
000817 940e 0ad1 	CALL SUBOPT_0x32
000819 940e 0ae3 	CALL SUBOPT_0x33
00081b 940e 012e 	CALL _motor
                 ; 0000 03B5            if (adc[min]<60  &&( (adc[0]<60) || (adc[15]<60)|| (adc[1]<60)  )  )  t=0;}
00081d 940e 09fd 	CALL SUBOPT_0x16
00081f 940e 0a77 	CALL SUBOPT_0x28
000821 97fc      	SBIW R30,60
000822 f47c      	BRGE _0x137
000823 940e 0a17 	CALL SUBOPT_0x1A
000825 97dc      	SBIW R26,60
000826 f054      	BRLT _0x138
000827 940e 0a12 	CALL SUBOPT_0x19
000829 97dc      	SBIW R26,60
00082a f034      	BRLT _0x138
                +
00082b 91a0 0512+LDS R26 , _adc + 2
00082d 91b0 0513+LDS R27 , _adc + 2 + 1
                 	__GETW2MN _adc,2
00082f 97dc      	SBIW R26,60
000830 f40c      	BRGE _0x137
                 _0x138:
000831 c001      	RJMP _0x13A
                 _0x137:
000832 c002      	RJMP _0x136
                 _0x13A:
000833 24aa      	CLR  R10
000834 24bb      	CLR  R11
                 _0x136:
                 ; 0000 03B6 
                 ; 0000 03B7           else  {
000835 c00e      	RJMP _0x13B
                 _0x133:
                 ; 0000 03B8              motor(0+cmp,0+cmp,0+cmp,0+cmp);
000836 940e 0af5 	CALL SUBOPT_0x34
000838 940e 0af5 	CALL SUBOPT_0x34
00083a 940e 0af5 	CALL SUBOPT_0x34
00083c 940e 0af5 	CALL SUBOPT_0x34
00083e 940e 012e 	CALL _motor
                 ; 0000 03B9           t=0;
000840 24aa      	CLR  R10
000841 24bb      	CLR  R11
                 ; 0000 03BA           f=0 ;
000842 940e 0a92 	CALL SUBOPT_0x2D
                 ; 0000 03BB 
                 ; 0000 03BC           }
                 _0x13B:
                 _0x132:
                 _0x12E:
                 _0x128:
                 ; 0000 03BD          sharp();
000844 940e 01b6 	CALL _sharp
                 ; 0000 03BE          compass();
000846 940e 03dd 	CALL _compass
                 ; 0000 03BF           #asm("wdr") ;
000848 95a8      	wdr
                 ; 0000 03C0           }
000849 cf62      	RJMP _0x124
                 _0x126:
                 ; 0000 03C1 
                 ; 0000 03C2 
                 ; 0000 03C3 
                 ; 0000 03C4               if(SB>300){
00084a 940e 09b0 	CALL SUBOPT_0x9
00084c 32ad      	CPI  R26,LOW(0x12D)
00084d e0e1      	LDI  R30,HIGH(0x12D)
00084e 07be      	CPC  R27,R30
00084f f414      	BRGE PC+3
000850 940c 0897 	JMP _0x13C
                 ; 0000 03C5             if (kaf[4]<400 || kaf[5]<400 || kaf[6]<400 ||  kaf[7]<400){
                +
000852 91a0 053c+LDS R26 , _kaf + 8
000854 91b0 053d+LDS R27 , _kaf + 8 + 1
                 	__GETW2MN _kaf,8
000856 39a0      	CPI  R26,LOW(0x190)
000857 e0e1      	LDI  R30,HIGH(0x190)
000858 07be      	CPC  R27,R30
000859 f0c4      	BRLT _0x13E
                +
00085a 91a0 053e+LDS R26 , _kaf + 10
00085c 91b0 053f+LDS R27 , _kaf + 10 + 1
                 	__GETW2MN _kaf,10
00085e 39a0      	CPI  R26,LOW(0x190)
00085f e0e1      	LDI  R30,HIGH(0x190)
000860 07be      	CPC  R27,R30
000861 f084      	BRLT _0x13E
                +
000862 91a0 0540+LDS R26 , _kaf + 12
000864 91b0 0541+LDS R27 , _kaf + 12 + 1
                 	__GETW2MN _kaf,12
000866 39a0      	CPI  R26,LOW(0x190)
000867 e0e1      	LDI  R30,HIGH(0x190)
000868 07be      	CPC  R27,R30
000869 f044      	BRLT _0x13E
                +
00086a 91a0 0542+LDS R26 , _kaf + 14
00086c 91b0 0543+LDS R27 , _kaf + 14 + 1
                 	__GETW2MN _kaf,14
00086e 39a0      	CPI  R26,LOW(0x190)
00086f e0e1      	LDI  R30,HIGH(0x190)
000870 07be      	CPC  R27,R30
000871 f524      	BRGE _0x13D
                 _0x13E:
                 ; 0000 03C6             motor(255+cmp,255+cmp,-255+cmp,-255+cmp);
000872 940e 0b23 	CALL SUBOPT_0x38
000874 940e 0b29 	CALL SUBOPT_0x39
000876 940e 0b29 	CALL SUBOPT_0x39
000878 940e 0b2f 	CALL SUBOPT_0x3A
                 ; 0000 03C7               delay_ms(30);
00087a e1ee      	LDI  R30,LOW(30)
00087b e0f0      	LDI  R31,HIGH(30)
00087c 93fa      	ST   -Y,R31
00087d 93ea      	ST   -Y,R30
00087e 940e 0bd9 	CALL _delay_ms
                 ; 0000 03C8             while (min>=4 && min<=12){
                 _0x140:
000880 940e 0a1c 	CALL SUBOPT_0x1B
000882 9714      	SBIW R26,4
000883 f024      	BRLT _0x143
000884 940e 0a1c 	CALL SUBOPT_0x1B
000886 971d      	SBIW R26,13
000887 f00c      	BRLT _0x144
                 _0x143:
000888 c00d      	RJMP _0x142
                 _0x144:
                 ; 0000 03C9             motor(0+cmp,0+cmp,0+cmp,0+cmp);
000889 940e 0af5 	CALL SUBOPT_0x34
00088b 940e 0af5 	CALL SUBOPT_0x34
00088d 940e 0af5 	CALL SUBOPT_0x34
00088f 940e 0af5 	CALL SUBOPT_0x34
000891 940e 012e 	CALL _motor
                 ; 0000 03CA 
                 ; 0000 03CB               sensor(); }
000893 940e 023a 	CALL _sensor
000895 cfea      	RJMP _0x140
                 _0x142:
                 ; 0000 03CC               }
                 ; 0000 03CD               #asm("wdr") ;
                 _0x13D:
000896 95a8      	wdr
                 ; 0000 03CE               }
                 ; 0000 03CF 
                 ; 0000 03D0 
                 ; 0000 03D1 
                 ; 0000 03D2 
                 ; 0000 03D3 
                 ; 0000 03D4 //           while (b==1 ){
                 ; 0000 03D5 //           if( (adc[0] || adc[1] || adc[2] || adc[3]) && (adc[12] || adc[13] || adc[14] || adc[15])){
                 ; 0000 03D6 //           motor(255/2+cmp,255/2+cmp,-255/2+cmp,-255/2+cmp) ;
                 ; 0000 03D7 //
                 ; 0000 03D8 //           }
                 ; 0000 03D9 //           if (kaf[7]<450)
                 ; 0000 03DA //           motor(0+cmp,0+cmp,0+cmp,0+cmp);
                 ; 0000 03DB //           if (kaf[6]<300)
                 ; 0000 03DC //           motor(0+cmp,0+cmp,0+cmp,0+cmp);
                 ; 0000 03DD //           if (( kaf[5]<300 || kaf[4]<300)  && min>=4 && min<=12 )
                 ; 0000 03DE //           motor(255/3+cmp,255/3+cmp,-255/3+cmp,-255/3+cmp) ;
                 ; 0000 03DF //
                 ; 0000 03E0 //
                 ; 0000 03E1 //           else if (min>12 || min<4){
                 ; 0000 03E2 //           sensor();
                 ; 0000 03E3 //           compass();
                 ; 0000 03E4 //           follow();
                 ; 0000 03E5 //           sharp();
                 ; 0000 03E6 //
                 ; 0000 03E7 //           b=0;
                 ; 0000 03E8 //            #asm("wdr") ;
                 ; 0000 03E9 //           }
                 ; 0000 03EA //
                 ; 0000 03EB //           sensor();
                 ; 0000 03EC //           compass();
                 ; 0000 03ED //           sharp();
                 ; 0000 03EE //            #asm("wdr") ;
                 ; 0000 03EF //
                 ; 0000 03F0 //
                 ; 0000 03F1 //          }
                 ; 0000 03F2 
                 ; 0000 03F3 
                 ; 0000 03F4 
                 ; 0000 03F5 
                 ; 0000 03F6         #asm("wdr") ;
                 _0x13C:
000897 95a8      	wdr
                 ; 0000 03F7 
                 ; 0000 03F8 
                 ; 0000 03F9         //////////////////////////12 13 14 15 left
                 ; 0000 03FA         /////////////////////////////0 1 2 3          right
                 ; 0000 03FB         ///////////////////////////////// 4 5 6 7 back
                 ; 0000 03FC         ///////////////////////////   8 9 10 11 front
                 ; 0000 03FD 
                 ; 0000 03FE 
                 ; 0000 03FF 
                 ; 0000 0400 
                 ; 0000 0401 //                   if( SB>300){
                 ; 0000 0402 //                motor(255-RL+cmp,255+RL+cmp,-255+RL-cmp,-255-RL+cmp);
                 ; 0000 0403 //           }
                 ; 0000 0404 //
                 ; 0000 0405            //////////////////////////////////////////////////////////////
                 ; 0000 0406 //           else if(SB>190 && RL<-70 )
                 ; 0000 0407 //           {
                 ; 0000 0408 //           motor((255+cmp)*0.5,(-255+cmp)*0.5,(-255+cmp)*0.5,(255+cmp)*0.5);
                 ; 0000 0409 //           }
                 ; 0000 040A //            else if(SB>190 && RL>70 )
                 ; 0000 040B //           {
                 ; 0000 040C //           motor((-255+cmp)*0.5,(255+cmp)*0.5,(255+cmp)*0.5,(-255+cmp)*0.5);
                 ; 0000 040D //           if (adc[min]<60  &&( (adc[0]<60) || (adc[15]<60)|| (adc[1]<60)  )  )  t=0;}
                 ; 0000 040E //            else  {  motor(0+cmp,0+cmp,0+cmp,0+cmp);
                 ; 0000 040F //
                 ; 0000 0410 //      b=0;
                 ; 0000 0411 
                 ; 0000 0412 
                 ; 0000 0413       };
000898 ce25      	RJMP _0xF2
                 ; 0000 0414  }
                 _0x145:
000899 cfff      	RJMP _0x145
                 	#ifndef __SLEEP_DEFINED__
                 	#endif
                 
                 	.CSEG
                     .equ __lcd_direction=__lcd_port-1
                     .equ __lcd_pin=__lcd_port-2
                     .equ __lcd_rs=0
                     .equ __lcd_rd=1
                     .equ __lcd_enable=2
                     .equ __lcd_busy_flag=7
                 
                 	.DSEG
                 
                 	.CSEG
                 __lcd_delay_G101:
00089a e0ff          ldi   r31,15
                 __lcd_delay0:
00089b 95fa          dec   r31
00089c f7f1          brne  __lcd_delay0
00089d 9508      	RET
                 __lcd_ready:
00089e b3a4          in    r26,__lcd_direction
00089f 70af          andi  r26,0xf                 ;set as input
0008a0 bba4          out   __lcd_direction,r26
0008a1 9aa9          sbi   __lcd_port,__lcd_rd     ;RD=1
0008a2 98a8          cbi   __lcd_port,__lcd_rs     ;RS=0
                 __lcd_busy:
0008a3 dff6      	RCALL __lcd_delay_G101
0008a4 9aaa          sbi   __lcd_port,__lcd_enable ;EN=1
0008a5 dff4      	RCALL __lcd_delay_G101
0008a6 b3a3          in    r26,__lcd_pin
0008a7 98aa          cbi   __lcd_port,__lcd_enable ;EN=0
0008a8 dff1      	RCALL __lcd_delay_G101
0008a9 9aaa          sbi   __lcd_port,__lcd_enable ;EN=1
0008aa dfef      	RCALL __lcd_delay_G101
0008ab 98aa          cbi   __lcd_port,__lcd_enable ;EN=0
0008ac fda7          sbrc  r26,__lcd_busy_flag
0008ad cff5          rjmp  __lcd_busy
0008ae 9508      	RET
                 __lcd_write_nibble_G101:
0008af 7fa0          andi  r26,0xf0
0008b0 2bab          or    r26,r27
0008b1 bba5          out   __lcd_port,r26          ;write
0008b2 9aaa          sbi   __lcd_port,__lcd_enable ;EN=1
0008b3 940e 089a 	CALL __lcd_delay_G101
0008b5 98aa          cbi   __lcd_port,__lcd_enable ;EN=0
0008b6 940e 089a 	CALL __lcd_delay_G101
0008b8 9508      	RET
                 __lcd_write_data:
0008b9 98a9          cbi  __lcd_port,__lcd_rd 	  ;RD=0
0008ba b3a4          in    r26,__lcd_direction
0008bb 6fa7          ori   r26,0xf0 | (1<<__lcd_rs) | (1<<__lcd_rd) | (1<<__lcd_enable) ;set as output
0008bc bba4          out   __lcd_direction,r26
0008bd b3b5          in    r27,__lcd_port
0008be 70bf          andi  r27,0xf
0008bf 81a8          ld    r26,y
0008c0 dfee      	RCALL __lcd_write_nibble_G101
0008c1 81a8          ld    r26,y
0008c2 95a2          swap  r26
0008c3 dfeb      	RCALL __lcd_write_nibble_G101
0008c4 9aa9          sbi   __lcd_port,__lcd_rd     ;RD=1
0008c5 940c 096f 	JMP  _0x2080001
                 __lcd_read_nibble_G101:
0008c7 9aaa          sbi   __lcd_port,__lcd_enable ;EN=1
0008c8 940e 089a 	CALL __lcd_delay_G101
0008ca b3e3          in    r30,__lcd_pin           ;read
0008cb 98aa          cbi   __lcd_port,__lcd_enable ;EN=0
0008cc 940e 089a 	CALL __lcd_delay_G101
0008ce 7fe0          andi  r30,0xf0
0008cf 9508      	RET
                 _lcd_read_byte0_G101:
0008d0 940e 089a 	CALL __lcd_delay_G101
0008d2 dff4      	RCALL __lcd_read_nibble_G101
0008d3 2fae          mov   r26,r30
0008d4 dff2      	RCALL __lcd_read_nibble_G101
0008d5 98a9          cbi   __lcd_port,__lcd_rd     ;RD=0
0008d6 95e2          swap  r30
0008d7 2bea          or    r30,r26
0008d8 9508      	RET
                 _lcd_gotoxy:
0008d9 940e 089e 	CALL __lcd_ready
0008db 940e 0977 	CALL SUBOPT_0x1
0008dd 59ec      	SUBI R30,LOW(-__base_y_G101)
0008de 4ffa      	SBCI R31,HIGH(-__base_y_G101)
0008df 81e0      	LD   R30,Z
0008e0 e0f0      	LDI  R31,0
0008e1 01df      	MOVW R26,R30
0008e2 81e9      	LDD  R30,Y+1
0008e3 e0f0      	LDI  R31,0
0008e4 0fea      	ADD  R30,R26
0008e5 1ffb      	ADC  R31,R27
0008e6 93ea      	ST   -Y,R30
0008e7 940e 08b9 	CALL __lcd_write_data
0008e9 8089      	LDD  R8,Y+1
0008ea 81e8      	LD   R30,Y
0008eb 93e0 0568 	STS  __lcd_y,R30
0008ed 9622      	ADIW R28,2
0008ee 9508      	RET
                 _lcd_clear:
0008ef 940e 089e 	CALL __lcd_ready
0008f1 e0e2      	LDI  R30,LOW(2)
0008f2 93ea      	ST   -Y,R30
0008f3 940e 08b9 	CALL __lcd_write_data
0008f5 940e 089e 	CALL __lcd_ready
0008f7 e0ec      	LDI  R30,LOW(12)
0008f8 93ea      	ST   -Y,R30
0008f9 940e 08b9 	CALL __lcd_write_data
0008fb 940e 089e 	CALL __lcd_ready
0008fd e0e1      	LDI  R30,LOW(1)
0008fe 93ea      	ST   -Y,R30
0008ff 940e 08b9 	CALL __lcd_write_data
000901 e0e0      	LDI  R30,LOW(0)
000902 93e0 0568 	STS  __lcd_y,R30
000904 2e8e      	MOV  R8,R30
000905 9508      	RET
                 _lcd_putchar:
000906 93ef          push r30
000907 93ff          push r31
000908 81a8          ld   r26,y
000909 9468          set
00090a 30aa          cpi  r26,10
00090b f031          breq __lcd_putchar1
00090c 94e8          clt
00090d 9483      	INC  R8
00090e 91e0 0569 	LDS  R30,__lcd_maxx
000910 15e8      	CP   R30,R8
000911 f460      	BRSH _0x2020004
                 	__lcd_putchar1:
000912 91e0 0568 	LDS  R30,__lcd_y
000914 5fef      	SUBI R30,-LOW(1)
000915 93e0 0568 	STS  __lcd_y,R30
000917 e0e0      	LDI  R30,LOW(0)
000918 93ea      	ST   -Y,R30
000919 91e0 0568 	LDS  R30,__lcd_y
00091b 93ea      	ST   -Y,R30
00091c dfbc      	RCALL _lcd_gotoxy
00091d f02e      	brts __lcd_putchar0
                 _0x2020004:
00091e df7f          rcall __lcd_ready
00091f 9aa8          sbi  __lcd_port,__lcd_rs ;RS=1
000920 81a8          ld   r26,y
000921 93aa          st   -y,r26
000922 df96          rcall __lcd_write_data
                 __lcd_putchar0:
000923 91ff          pop  r31
000924 91ef          pop  r30
000925 940c 096f 	JMP  _0x2080001
                 __long_delay_G101:
000927 27aa          clr   r26
000928 27bb          clr   r27
                 __long_delay0:
000929 9711          sbiw  r26,1         ;2 cycles
00092a f7f1          brne  __long_delay0 ;2 cycles
00092b 9508      	RET
                 __lcd_init_write_G101:
00092c 98a9          cbi  __lcd_port,__lcd_rd 	  ;RD=0
00092d b3a4          in    r26,__lcd_direction
00092e 6fa7          ori   r26,0xf7                ;set as output
00092f bba4          out   __lcd_direction,r26
000930 b3b5          in    r27,__lcd_port
000931 70bf          andi  r27,0xf
000932 81a8          ld    r26,y
000933 940e 08af 	CALL __lcd_write_nibble_G101
000935 9aa9          sbi   __lcd_port,__lcd_rd     ;RD=1
000936 c038      	RJMP _0x2080001
                 _lcd_init:
000937 98aa          cbi   __lcd_port,__lcd_enable ;EN=0
000938 98a8          cbi   __lcd_port,__lcd_rs     ;RS=0
000939 81e8      	LD   R30,Y
00093a 93e0 0569 	STS  __lcd_maxx,R30
00093c 940e 0977 	CALL SUBOPT_0x1
00093e 58e0      	SUBI R30,LOW(-128)
00093f 4fff      	SBCI R31,HIGH(-128)
                +
000940 93e0 0566+STS __base_y_G101 + 2 , R30
                 	__PUTB1MN __base_y_G101,2
000942 940e 0977 	CALL SUBOPT_0x1
000944 54e0      	SUBI R30,LOW(-192)
000945 4fff      	SBCI R31,HIGH(-192)
                +
000946 93e0 0567+STS __base_y_G101 + 3 , R30
                 	__PUTB1MN __base_y_G101,3
000948 940e 0b7c 	CALL SUBOPT_0x46
00094a 940e 0b7c 	CALL SUBOPT_0x46
00094c 940e 0b7c 	CALL SUBOPT_0x46
00094e dfd8      	RCALL __long_delay_G101
00094f e2e0      	LDI  R30,LOW(32)
000950 93ea      	ST   -Y,R30
000951 dfda      	RCALL __lcd_init_write_G101
000952 dfd4      	RCALL __long_delay_G101
000953 e2e8      	LDI  R30,LOW(40)
000954 940e 0b82 	CALL SUBOPT_0x47
000956 e0e4      	LDI  R30,LOW(4)
000957 940e 0b82 	CALL SUBOPT_0x47
000959 e8e5      	LDI  R30,LOW(133)
00095a 940e 0b82 	CALL SUBOPT_0x47
00095c b3a4          in    r26,__lcd_direction
00095d 70af          andi  r26,0xf                 ;set as input
00095e bba4          out   __lcd_direction,r26
00095f 9aa9          sbi   __lcd_port,__lcd_rd     ;RD=1
000960 940e 08d0 	CALL _lcd_read_byte0_G101
000962 30e5      	CPI  R30,LOW(0x5)
000963 f011      	BREQ _0x202000B
000964 e0e0      	LDI  R30,LOW(0)
000965 c009      	RJMP _0x2080001
                 _0x202000B:
000966 940e 089e 	CALL __lcd_ready
000968 e0e6      	LDI  R30,LOW(6)
000969 93ea      	ST   -Y,R30
00096a 940e 08b9 	CALL __lcd_write_data
00096c 940e 08ef 	CALL _lcd_clear
00096e e0e1      	LDI  R30,LOW(1)
                 _0x2080001:
00096f 9621      	ADIW R28,1
000970 9508      	RET
                 
                 	.CSEG
                 
                 	.CSEG
                 
                 	.ESEG
                 _c:
000000           	.BYTE 0x2
                 
                 	.DSEG
                 _rx_buffer1:
000500           	.BYTE 0x8
                 _SR:
000508           	.BYTE 0x2
                 _SB:
00050a           	.BYTE 0x2
                 _RL:
00050c           	.BYTE 0x2
                 _sum:
00050e           	.BYTE 0x2
                 _adc:
000510           	.BYTE 0x20
                 _min:
000530           	.BYTE 0x2
                 _i:
000532           	.BYTE 0x2
                 _kaf:
000534           	.BYTE 0x20
                 _mini:
000554           	.BYTE 0x2
                 _r:
000556           	.BYTE 0x2
                 _l:
000558           	.BYTE 0x2
                 _f:
00055a           	.BYTE 0x2
                 _b:
00055c           	.BYTE 0x2
                 _h:
00055e           	.BYTE 0x2
                 _outr:
000560           	.BYTE 0x2
                 _outl:
000562           	.BYTE 0x2
                 __base_y_G101:
000564           	.BYTE 0x4
                 __lcd_y:
000568           	.BYTE 0x1
                 __lcd_maxx:
000569           	.BYTE 0x1
                 _p_S1030024:
00056a           	.BYTE 0x2
                 
                 	.CSEG
                 ;OPTIMIZER ADDED SUBROUTINE, CALLED 4 TIMES, CODE SIZE REDUCTION:9 WORDS
                 SUBOPT_0x0:
000971 e0ec      	LDI  R30,LOW(12)
000972 93ea      	ST   -Y,R30
000973 e0e1      	LDI  R30,LOW(1)
000974 93ea      	ST   -Y,R30
000975 940c 08d9 	JMP  _lcd_gotoxy
                 
                 ;OPTIMIZER ADDED SUBROUTINE, CALLED 4 TIMES, CODE SIZE REDUCTION:3 WORDS
                 SUBOPT_0x1:
000977 81e8      	LD   R30,Y
000978 e0f0      	LDI  R31,0
000979 9508      	RET
                 
                 ;OPTIMIZER ADDED SUBROUTINE, CALLED 3 TIMES, CODE SIZE REDUCTION:1 WORDS
                 SUBOPT_0x2:
00097a b1e6      	IN   R30,0x6
00097b e0f0      	LDI  R31,0
00097c 9508      	RET
                 
                 ;OPTIMIZER ADDED SUBROUTINE, CALLED 3 TIMES, CODE SIZE REDUCTION:3 WORDS
                 SUBOPT_0x3:
00097d 93ea      	ST   -Y,R30
00097e e0e1      	LDI  R30,LOW(1)
00097f 93ea      	ST   -Y,R30
000980 940c 08d9 	JMP  _lcd_gotoxy
                 
                 ;OPTIMIZER ADDED SUBROUTINE, CALLED 7 TIMES, CODE SIZE REDUCTION:9 WORDS
                 SUBOPT_0x4:
000982 91a0 0508 	LDS  R26,_SR
000984 91b0 0509 	LDS  R27,_SR+1
000986 9508      	RET
                 
                 ;OPTIMIZER ADDED SUBROUTINE, CALLED 7 TIMES, CODE SIZE REDUCTION:63 WORDS
                 SUBOPT_0x5:
000987 e6e4      	LDI  R30,LOW(100)
000988 e0f0      	LDI  R31,HIGH(100)
000989 940e 0c16 	CALL __DIVW21
00098b 01df      	MOVW R26,R30
00098c e0ea      	LDI  R30,LOW(10)
00098d e0f0      	LDI  R31,HIGH(10)
00098e 940e 0c1b 	CALL __MODW21
000990 96f0      	ADIW R30,48
000991 93ea      	ST   -Y,R30
000992 940c 0906 	JMP  _lcd_putchar
                 
                 ;OPTIMIZER ADDED SUBROUTINE, CALLED 9 TIMES, CODE SIZE REDUCTION:85 WORDS
                 SUBOPT_0x6:
000994 e0ea      	LDI  R30,LOW(10)
000995 e0f0      	LDI  R31,HIGH(10)
000996 940e 0c16 	CALL __DIVW21
000998 01df      	MOVW R26,R30
000999 e0ea      	LDI  R30,LOW(10)
00099a e0f0      	LDI  R31,HIGH(10)
00099b 940e 0c1b 	CALL __MODW21
00099d 96f0      	ADIW R30,48
00099e 93ea      	ST   -Y,R30
00099f 940c 0906 	JMP  _lcd_putchar
                 
                 ;OPTIMIZER ADDED SUBROUTINE, CALLED 2 TIMES, CODE SIZE REDUCTION:4 WORDS
                 SUBOPT_0x7:
0009a1 e0ea      	LDI  R30,LOW(10)
0009a2 e0f0      	LDI  R31,HIGH(10)
0009a3 940e 0c1b 	CALL __MODW21
0009a5 96f0      	ADIW R30,48
0009a6 93ea      	ST   -Y,R30
0009a7 940e 0906 	CALL _lcd_putchar
0009a9 e0e8      	LDI  R30,LOW(8)
0009aa 9508      	RET
                 
                 ;OPTIMIZER ADDED SUBROUTINE, CALLED 5 TIMES, CODE SIZE REDUCTION:9 WORDS
                 SUBOPT_0x8:
0009ab 93ea      	ST   -Y,R30
0009ac e0e0      	LDI  R30,LOW(0)
0009ad 93ea      	ST   -Y,R30
0009ae 940c 08d9 	JMP  _lcd_gotoxy
                 
                 ;OPTIMIZER ADDED SUBROUTINE, CALLED 11 TIMES, CODE SIZE REDUCTION:17 WORDS
                 SUBOPT_0x9:
0009b0 91a0 050a 	LDS  R26,_SB
0009b2 91b0 050b 	LDS  R27,_SB+1
0009b4 9508      	RET
                 
                 ;OPTIMIZER ADDED SUBROUTINE, CALLED 7 TIMES, CODE SIZE REDUCTION:33 WORDS
                 SUBOPT_0xA:
0009b5 e0ea      	LDI  R30,LOW(10)
0009b6 e0f0      	LDI  R31,HIGH(10)
0009b7 940e 0c1b 	CALL __MODW21
0009b9 96f0      	ADIW R30,48
0009ba 93ea      	ST   -Y,R30
0009bb 940c 0906 	JMP  _lcd_putchar
                 
                 ;OPTIMIZER ADDED SUBROUTINE, CALLED 4 TIMES, CODE SIZE REDUCTION:3 WORDS
                 SUBOPT_0xB:
0009bd 93e0 050c 	STS  _RL,R30
0009bf 93f0 050d 	STS  _RL+1,R31
0009c1 9508      	RET
                 
                 ;OPTIMIZER ADDED SUBROUTINE, CALLED 6 TIMES, CODE SIZE REDUCTION:7 WORDS
                 SUBOPT_0xC:
0009c2 e0e2      	LDI  R30,LOW(2)
0009c3 e0f0      	LDI  R31,HIGH(2)
0009c4 940e 0c16 	CALL __DIVW21
0009c6 9508      	RET
                 
                 ;OPTIMIZER ADDED SUBROUTINE, CALLED 2 TIMES, CODE SIZE REDUCTION:1 WORDS
                 SUBOPT_0xD:
0009c7 dff5      	RCALL SUBOPT_0xB
0009c8 91a0 050c 	LDS  R26,_RL
0009ca 91b0 050d 	LDS  R27,_RL+1
0009cc 9508      	RET
                 
                 ;OPTIMIZER ADDED SUBROUTINE, CALLED 20 TIMES, CODE SIZE REDUCTION:35 WORDS
                 SUBOPT_0xE:
0009cd 91a0 050c 	LDS  R26,_RL
0009cf 91b0 050d 	LDS  R27,_RL+1
0009d1 9508      	RET
                 
                 ;OPTIMIZER ADDED SUBROUTINE, CALLED 7 TIMES, CODE SIZE REDUCTION:9 WORDS
                 SUBOPT_0xF:
0009d2 dffa      	RCALL SUBOPT_0xE
0009d3 940e 0d46 	CALL __CPW02
0009d5 9508      	RET
                 
                 ;OPTIMIZER ADDED SUBROUTINE, CALLED 2 TIMES, CODE SIZE REDUCTION:3 WORDS
                 SUBOPT_0x10:
0009d6 91e0 050c 	LDS  R30,_RL
0009d8 91f0 050d 	LDS  R31,_RL+1
0009da 940e 0bf1 	CALL __CWD1
0009dc 940e 0cca 	CALL __CDF1
0009de 9508      	RET
                 
                 ;OPTIMIZER ADDED SUBROUTINE, CALLED 5 TIMES, CODE SIZE REDUCTION:5 WORDS
                 SUBOPT_0x11:
0009df 91a0 0532 	LDS  R26,_i
0009e1 91b0 0533 	LDS  R27,_i+1
0009e3 9508      	RET
                 
                 ;OPTIMIZER ADDED SUBROUTINE, CALLED 2 TIMES, CODE SIZE REDUCTION:3 WORDS
                 SUBOPT_0x12:
0009e4 940e 0c16 	CALL __DIVW21
0009e6 01df      	MOVW R26,R30
0009e7 e0e2      	LDI  R30,LOW(2)
0009e8 e0f0      	LDI  R31,HIGH(2)
0009e9 940e 0c1b 	CALL __MODW21
0009eb 30e0      	CPI  R30,0
0009ec 9508      	RET
                 
                 ;OPTIMIZER ADDED SUBROUTINE, CALLED 6 TIMES, CODE SIZE REDUCTION:7 WORDS
                 SUBOPT_0x13:
0009ed 91e0 0532 	LDS  R30,_i
0009ef 91f0 0533 	LDS  R31,_i+1
0009f1 9508      	RET
                 
                 ;OPTIMIZER ADDED SUBROUTINE, CALLED 13 TIMES, CODE SIZE REDUCTION:21 WORDS
                 SUBOPT_0x14:
0009f2 e1a0      	LDI  R26,LOW(_adc)
0009f3 e0b5      	LDI  R27,HIGH(_adc)
0009f4 0fee      	LSL  R30
0009f5 1fff      	ROL  R31
0009f6 9508      	RET
                 
                 ;OPTIMIZER ADDED SUBROUTINE, CALLED 2 TIMES, CODE SIZE REDUCTION:1 WORDS
                 SUBOPT_0x15:
0009f7 dff5      	RCALL SUBOPT_0x13
0009f8 e3a4      	LDI  R26,LOW(_kaf)
0009f9 e0b5      	LDI  R27,HIGH(_kaf)
0009fa 0fee      	LSL  R30
0009fb 1fff      	ROL  R31
0009fc 9508      	RET
                 
                 ;OPTIMIZER ADDED SUBROUTINE, CALLED 11 TIMES, CODE SIZE REDUCTION:37 WORDS
                 SUBOPT_0x16:
0009fd 91e0 0530 	LDS  R30,_min
0009ff 91f0 0531 	LDS  R31,_min+1
000a01 cff0      	RJMP SUBOPT_0x14
                 
                 ;OPTIMIZER ADDED SUBROUTINE, CALLED 2 TIMES, CODE SIZE REDUCTION:1 WORDS
                 SUBOPT_0x17:
000a02 0fae      	ADD  R26,R30
000a03 1fbf      	ADC  R27,R31
000a04 940e 0c37 	CALL __GETW1P
000a06 160e      	CP   R0,R30
000a07 061f      	CPC  R1,R31
000a08 9508      	RET
                 
                 ;OPTIMIZER ADDED SUBROUTINE, CALLED 5 TIMES, CODE SIZE REDUCTION:21 WORDS
                 SUBOPT_0x18:
000a09 91e0 0554 	LDS  R30,_mini
000a0b 91f0 0555 	LDS  R31,_mini+1
000a0d e3a4      	LDI  R26,LOW(_kaf)
000a0e e0b5      	LDI  R27,HIGH(_kaf)
000a0f 0fee      	LSL  R30
000a10 1fff      	ROL  R31
000a11 9508      	RET
                 
                 ;OPTIMIZER ADDED SUBROUTINE, CALLED 3 TIMES, CODE SIZE REDUCTION:1 WORDS
                 SUBOPT_0x19:
                +
000a12 91a0 052e+LDS R26 , _adc + 30
000a14 91b0 052f+LDS R27 , _adc + 30 + 1
                 	__GETW2MN _adc,30
000a16 9508      	RET
                 
                 ;OPTIMIZER ADDED SUBROUTINE, CALLED 3 TIMES, CODE SIZE REDUCTION:1 WORDS
                 SUBOPT_0x1A:
000a17 91a0 0510 	LDS  R26,_adc
000a19 91b0 0511 	LDS  R27,_adc+1
000a1b 9508      	RET
                 
                 ;OPTIMIZER ADDED SUBROUTINE, CALLED 38 TIMES, CODE SIZE REDUCTION:71 WORDS
                 SUBOPT_0x1B:
000a1c 91a0 0530 	LDS  R26,_min
000a1e 91b0 0531 	LDS  R27,_min+1
000a20 9508      	RET
                 
                 ;OPTIMIZER ADDED SUBROUTINE, CALLED 8 TIMES, CODE SIZE REDUCTION:18 WORDS
                 SUBOPT_0x1C:
000a21 0fae      	ADD  R26,R30
000a22 1fbf      	ADC  R27,R31
000a23 940e 0c37 	CALL __GETW1P
000a25 01df      	MOVW R26,R30
000a26 9508      	RET
                 
                 ;OPTIMIZER ADDED SUBROUTINE, CALLED 2 TIMES, CODE SIZE REDUCTION:2 WORDS
                 SUBOPT_0x1D:
000a27 eee8      	LDI  R30,LOW(1000)
000a28 e0f3      	LDI  R31,HIGH(1000)
000a29 940e 0c16 	CALL __DIVW21
000a2b 01df      	MOVW R26,R30
000a2c cf88      	RJMP SUBOPT_0xA
                 
                 ;OPTIMIZER ADDED SUBROUTINE, CALLED 3 TIMES, CODE SIZE REDUCTION:7 WORDS
                 SUBOPT_0x1E:
                +
000a2d 91a0 054c+LDS R26 , _kaf + 24
000a2f 91b0 054d+LDS R27 , _kaf + 24 + 1
                 	__GETW2MN _kaf,24
000a31 39a0      	CPI  R26,LOW(0x190)
000a32 e0e1      	LDI  R30,HIGH(0x190)
000a33 07be      	CPC  R27,R30
000a34 9508      	RET
                 
                 ;OPTIMIZER ADDED SUBROUTINE, CALLED 3 TIMES, CODE SIZE REDUCTION:7 WORDS
                 SUBOPT_0x1F:
                +
000a35 91a0 054e+LDS R26 , _kaf + 26
000a37 91b0 054f+LDS R27 , _kaf + 26 + 1
                 	__GETW2MN _kaf,26
000a39 39a0      	CPI  R26,LOW(0x190)
000a3a e0e1      	LDI  R30,HIGH(0x190)
000a3b 07be      	CPC  R27,R30
000a3c 9508      	RET
                 
                 ;OPTIMIZER ADDED SUBROUTINE, CALLED 3 TIMES, CODE SIZE REDUCTION:7 WORDS
                 SUBOPT_0x20:
                +
000a3d 91a0 0550+LDS R26 , _kaf + 28
000a3f 91b0 0551+LDS R27 , _kaf + 28 + 1
                 	__GETW2MN _kaf,28
000a41 39a0      	CPI  R26,LOW(0x190)
000a42 e0e1      	LDI  R30,HIGH(0x190)
000a43 07be      	CPC  R27,R30
000a44 9508      	RET
                 
                 ;OPTIMIZER ADDED SUBROUTINE, CALLED 3 TIMES, CODE SIZE REDUCTION:7 WORDS
                 SUBOPT_0x21:
                +
000a45 91a0 0552+LDS R26 , _kaf + 30
000a47 91b0 0553+LDS R27 , _kaf + 30 + 1
                 	__GETW2MN _kaf,30
000a49 39a0      	CPI  R26,LOW(0x190)
000a4a e0e1      	LDI  R30,HIGH(0x190)
000a4b 07be      	CPC  R27,R30
000a4c 9508      	RET
                 
                 ;OPTIMIZER ADDED SUBROUTINE, CALLED 3 TIMES, CODE SIZE REDUCTION:7 WORDS
                 SUBOPT_0x22:
000a4d 91a0 0534 	LDS  R26,_kaf
000a4f 91b0 0535 	LDS  R27,_kaf+1
000a51 39a0      	CPI  R26,LOW(0x190)
000a52 e0e1      	LDI  R30,HIGH(0x190)
000a53 07be      	CPC  R27,R30
000a54 9508      	RET
                 
                 ;OPTIMIZER ADDED SUBROUTINE, CALLED 3 TIMES, CODE SIZE REDUCTION:7 WORDS
                 SUBOPT_0x23:
                +
000a55 91a0 0536+LDS R26 , _kaf + 2
000a57 91b0 0537+LDS R27 , _kaf + 2 + 1
                 	__GETW2MN _kaf,2
000a59 39a0      	CPI  R26,LOW(0x190)
000a5a e0e1      	LDI  R30,HIGH(0x190)
000a5b 07be      	CPC  R27,R30
000a5c 9508      	RET
                 
                 ;OPTIMIZER ADDED SUBROUTINE, CALLED 3 TIMES, CODE SIZE REDUCTION:7 WORDS
                 SUBOPT_0x24:
                +
000a5d 91a0 0538+LDS R26 , _kaf + 4
000a5f 91b0 0539+LDS R27 , _kaf + 4 + 1
                 	__GETW2MN _kaf,4
000a61 39a0      	CPI  R26,LOW(0x190)
000a62 e0e1      	LDI  R30,HIGH(0x190)
000a63 07be      	CPC  R27,R30
000a64 9508      	RET
                 
                 ;OPTIMIZER ADDED SUBROUTINE, CALLED 3 TIMES, CODE SIZE REDUCTION:7 WORDS
                 SUBOPT_0x25:
                +
000a65 91a0 053a+LDS R26 , _kaf + 6
000a67 91b0 053b+LDS R27 , _kaf + 6 + 1
                 	__GETW2MN _kaf,6
000a69 39a0      	CPI  R26,LOW(0x190)
000a6a e0e1      	LDI  R30,HIGH(0x190)
000a6b 07be      	CPC  R27,R30
000a6c 9508      	RET
                 
                 ;OPTIMIZER ADDED SUBROUTINE, CALLED 5 TIMES, CODE SIZE REDUCTION:5 WORDS
                 SUBOPT_0x26:
000a6d 91a0 0556 	LDS  R26,_r
000a6f 91b0 0557 	LDS  R27,_r+1
000a71 9508      	RET
                 
                 ;OPTIMIZER ADDED SUBROUTINE, CALLED 5 TIMES, CODE SIZE REDUCTION:5 WORDS
                 SUBOPT_0x27:
000a72 91a0 0558 	LDS  R26,_l
000a74 91b0 0559 	LDS  R27,_l+1
000a76 9508      	RET
                 
                 ;OPTIMIZER ADDED SUBROUTINE, CALLED 6 TIMES, CODE SIZE REDUCTION:7 WORDS
                 SUBOPT_0x28:
000a77 0fae      	ADD  R26,R30
000a78 1fbf      	ADC  R27,R31
000a79 940e 0c37 	CALL __GETW1P
000a7b 9508      	RET
                 
                 ;OPTIMIZER ADDED SUBROUTINE, CALLED 3 TIMES, CODE SIZE REDUCTION:1 WORDS
                 SUBOPT_0x29:
000a7c 91a0 055a 	LDS  R26,_f
000a7e 91b0 055b 	LDS  R27,_f+1
000a80 9508      	RET
                 
                 ;OPTIMIZER ADDED SUBROUTINE, CALLED 2 TIMES, CODE SIZE REDUCTION:1 WORDS
                 SUBOPT_0x2A:
000a81 e0e1      	LDI  R30,LOW(1)
000a82 e0f0      	LDI  R31,HIGH(1)
000a83 93e0 055a 	STS  _f,R30
000a85 93f0 055b 	STS  _f+1,R31
000a87 9508      	RET
                 
                 ;OPTIMIZER ADDED SUBROUTINE, CALLED 3 TIMES, CODE SIZE REDUCTION:1 WORDS
                 SUBOPT_0x2B:
000a88 93e0 0556 	STS  _r,R30
000a8a 93f0 0557 	STS  _r+1,R31
000a8c 9508      	RET
                 
                 ;OPTIMIZER ADDED SUBROUTINE, CALLED 3 TIMES, CODE SIZE REDUCTION:1 WORDS
                 SUBOPT_0x2C:
000a8d 93e0 0558 	STS  _l,R30
000a8f 93f0 0559 	STS  _l+1,R31
000a91 9508      	RET
                 
                 ;OPTIMIZER ADDED SUBROUTINE, CALLED 2 TIMES, CODE SIZE REDUCTION:1 WORDS
                 SUBOPT_0x2D:
000a92 e0e0      	LDI  R30,LOW(0)
000a93 e0f0      	LDI  R31,HIGH(0)
000a94 93e0 055a 	STS  _f,R30
000a96 93f0 055b 	STS  _f+1,R31
000a98 9508      	RET
                 
                 ;OPTIMIZER ADDED SUBROUTINE, CALLED 2 TIMES, CODE SIZE REDUCTION:1 WORDS
                 SUBOPT_0x2E:
000a99 e0e0      	LDI  R30,LOW(0)
000a9a e0f0      	LDI  R31,HIGH(0)
000a9b dfec      	RCALL SUBOPT_0x2B
000a9c e0e0      	LDI  R30,LOW(0)
000a9d e0f0      	LDI  R31,HIGH(0)
000a9e 9508      	RET
                 
                 ;OPTIMIZER ADDED SUBROUTINE, CALLED 3 TIMES, CODE SIZE REDUCTION:1 WORDS
                 SUBOPT_0x2F:
000a9f 01f2      	MOVW R30,R4
000aa0 940e 0be5 	CALL __ANEGW1
000aa2 01df      	MOVW R26,R30
000aa3 9508      	RET
                 
                 ;OPTIMIZER ADDED SUBROUTINE, CALLED 2 TIMES, CODE SIZE REDUCTION:37 WORDS
                 SUBOPT_0x30:
000aa4 df28      	RCALL SUBOPT_0xE
000aa5 e8e0      	LDI  R30,LOW(65408)
000aa6 efff      	LDI  R31,HIGH(65408)
000aa7 1bea      	SUB  R30,R26
000aa8 0bfb      	SBC  R31,R27
000aa9 0de4      	ADD  R30,R4
000aaa 1df5      	ADC  R31,R5
000aab 93fa      	ST   -Y,R31
000aac 93ea      	ST   -Y,R30
000aad 91e0 050c 	LDS  R30,_RL
000aaf 91f0 050d 	LDS  R31,_RL+1
000ab1 5fef      	SUBI R30,LOW(-65281)
000ab2 40f0      	SBCI R31,HIGH(-65281)
000ab3 0de4      	ADD  R30,R4
000ab4 1df5      	ADC  R31,R5
000ab5 93fa      	ST   -Y,R31
000ab6 93ea      	ST   -Y,R30
000ab7 91e0 050c 	LDS  R30,_RL
000ab9 91f0 050d 	LDS  R31,_RL+1
000abb 58e0      	SUBI R30,LOW(-128)
000abc 4fff      	SBCI R31,HIGH(-128)
000abd 19e4      	SUB  R30,R4
000abe 09f5      	SBC  R31,R5
000abf 93fa      	ST   -Y,R31
000ac0 93ea      	ST   -Y,R30
000ac1 df0b      	RCALL SUBOPT_0xE
000ac2 efef      	LDI  R30,LOW(255)
000ac3 e0f0      	LDI  R31,HIGH(255)
000ac4 1bea      	SUB  R30,R26
000ac5 0bfb      	SBC  R31,R27
000ac6 0de4      	ADD  R30,R4
000ac7 1df5      	ADC  R31,R5
000ac8 93fa      	ST   -Y,R31
000ac9 93ea      	ST   -Y,R30
000aca 940c 012e 	JMP  _motor
                 
                 ;OPTIMIZER ADDED SUBROUTINE, CALLED 3 TIMES, CODE SIZE REDUCTION:3 WORDS
                 SUBOPT_0x31:
000acc dee3      	RCALL SUBOPT_0x9
000acd 3baf      	CPI  R26,LOW(0xBF)
000ace e0e0      	LDI  R30,HIGH(0xBF)
000acf 07be      	CPC  R27,R30
000ad0 9508      	RET
                 
                 ;OPTIMIZER ADDED SUBROUTINE, CALLED 8 TIMES, CODE SIZE REDUCTION:102 WORDS
                 SUBOPT_0x32:
000ad1 01f2      	MOVW R30,R4
000ad2 50e1      	SUBI R30,LOW(-255)
000ad3 4fff      	SBCI R31,HIGH(-255)
000ad4 940e 0bf1 	CALL __CWD1
000ad6 940e 0cca 	CALL __CDF1
                +
000ad8 e0a0     +LDI R26 , LOW ( 0x3F000000 )
000ad9 e0b0     +LDI R27 , HIGH ( 0x3F000000 )
000ada e080     +LDI R24 , BYTE3 ( 0x3F000000 )
000adb e39f     +LDI R25 , BYTE4 ( 0x3F000000 )
                 	__GETD2N 0x3F000000
000adc 940e 0cf8 	CALL __MULF12
000ade 940e 0c93 	CALL __CFD1
000ae0 93fa      	ST   -Y,R31
000ae1 93ea      	ST   -Y,R30
000ae2 9508      	RET
                 
                 ;OPTIMIZER ADDED SUBROUTINE, CALLED 8 TIMES, CODE SIZE REDUCTION:102 WORDS
                 SUBOPT_0x33:
000ae3 01f2      	MOVW R30,R4
000ae4 5fef      	SUBI R30,LOW(-65281)
000ae5 40f0      	SBCI R31,HIGH(-65281)
000ae6 940e 0bf1 	CALL __CWD1
000ae8 940e 0cca 	CALL __CDF1
                +
000aea e0a0     +LDI R26 , LOW ( 0x3F000000 )
000aeb e0b0     +LDI R27 , HIGH ( 0x3F000000 )
000aec e080     +LDI R24 , BYTE3 ( 0x3F000000 )
000aed e39f     +LDI R25 , BYTE4 ( 0x3F000000 )
                 	__GETD2N 0x3F000000
000aee 940e 0cf8 	CALL __MULF12
000af0 940e 0c93 	CALL __CFD1
000af2 93fa      	ST   -Y,R31
000af3 93ea      	ST   -Y,R30
000af4 9508      	RET
                 
                 ;OPTIMIZER ADDED SUBROUTINE, CALLED 22 TIMES, CODE SIZE REDUCTION:39 WORDS
                 SUBOPT_0x34:
000af5 01f2      	MOVW R30,R4
000af6 9630      	ADIW R30,0
000af7 93fa      	ST   -Y,R31
000af8 93ea      	ST   -Y,R30
000af9 9508      	RET
                 
                 ;OPTIMIZER ADDED SUBROUTINE, CALLED 3 TIMES, CODE SIZE REDUCTION:7 WORDS
                 SUBOPT_0x35:
000afa 91a0 055e 	LDS  R26,_h
000afc 91b0 055f 	LDS  R27,_h+1
000afe 39a6      	CPI  R26,LOW(0x96)
000aff e0e0      	LDI  R30,HIGH(0x96)
000b00 07be      	CPC  R27,R30
000b01 9508      	RET
                 
                 ;OPTIMIZER ADDED SUBROUTINE, CALLED 3 TIMES, CODE SIZE REDUCTION:25 WORDS
                 SUBOPT_0x36:
000b02 e4e0      	LDI  R30,LOW(65344)
000b03 efff      	LDI  R31,HIGH(65344)
000b04 efff      	SER  R31
000b05 93fa      	ST   -Y,R31
000b06 93ea      	ST   -Y,R30
000b07 efef      	LDI  R30,LOW(255)
000b08 e0f0      	LDI  R31,HIGH(255)
000b09 93fa      	ST   -Y,R31
000b0a 93ea      	ST   -Y,R30
000b0b ece0      	LDI  R30,LOW(192)
000b0c e0f0      	LDI  R31,HIGH(192)
000b0d 93fa      	ST   -Y,R31
000b0e 93ea      	ST   -Y,R30
000b0f e0e1      	LDI  R30,LOW(65281)
000b10 efff      	LDI  R31,HIGH(65281)
000b11 efff      	SER  R31
000b12 9508      	RET
                 
                 ;OPTIMIZER ADDED SUBROUTINE, CALLED 3 TIMES, CODE SIZE REDUCTION:23 WORDS
                 SUBOPT_0x37:
000b13 efef      	LDI  R30,LOW(255)
000b14 e0f0      	LDI  R31,HIGH(255)
000b15 93fa      	ST   -Y,R31
000b16 93ea      	ST   -Y,R30
000b17 e8e0      	LDI  R30,LOW(65408)
000b18 efff      	LDI  R31,HIGH(65408)
000b19 93fa      	ST   -Y,R31
000b1a 93ea      	ST   -Y,R30
000b1b e0e1      	LDI  R30,LOW(65281)
000b1c efff      	LDI  R31,HIGH(65281)
000b1d efff      	SER  R31
000b1e 93fa      	ST   -Y,R31
000b1f 93ea      	ST   -Y,R30
000b20 e8e0      	LDI  R30,LOW(128)
000b21 e0f0      	LDI  R31,HIGH(128)
000b22 9508      	RET
                 
                 ;OPTIMIZER ADDED SUBROUTINE, CALLED 19 TIMES, CODE SIZE REDUCTION:51 WORDS
                 SUBOPT_0x38:
000b23 01f2      	MOVW R30,R4
000b24 50e1      	SUBI R30,LOW(-255)
000b25 4fff      	SBCI R31,HIGH(-255)
000b26 93fa      	ST   -Y,R31
000b27 93ea      	ST   -Y,R30
000b28 9508      	RET
                 
                 ;OPTIMIZER ADDED SUBROUTINE, CALLED 10 TIMES, CODE SIZE REDUCTION:24 WORDS
                 SUBOPT_0x39:
000b29 93fa      	ST   -Y,R31
000b2a 93ea      	ST   -Y,R30
000b2b 01f2      	MOVW R30,R4
000b2c 5fef      	SUBI R30,LOW(-65281)
000b2d 40f0      	SBCI R31,HIGH(-65281)
000b2e 9508      	RET
                 
                 ;OPTIMIZER ADDED SUBROUTINE, CALLED 10 TIMES, CODE SIZE REDUCTION:15 WORDS
                 SUBOPT_0x3A:
000b2f 93fa      	ST   -Y,R31
000b30 93ea      	ST   -Y,R30
000b31 940c 012e 	JMP  _motor
                 
                 ;OPTIMIZER ADDED SUBROUTINE, CALLED 5 TIMES, CODE SIZE REDUCTION:17 WORDS
                 SUBOPT_0x3B:
000b33 01f2      	MOVW R30,R4
000b34 5fef      	SUBI R30,LOW(-65281)
000b35 40f0      	SBCI R31,HIGH(-65281)
000b36 93fa      	ST   -Y,R31
000b37 93ea      	ST   -Y,R30
000b38 cfbc      	RJMP SUBOPT_0x34
                 
                 ;OPTIMIZER ADDED SUBROUTINE, CALLED 4 TIMES, CODE SIZE REDUCTION:6 WORDS
                 SUBOPT_0x3C:
000b39 01f2      	MOVW R30,R4
000b3a 58e0      	SUBI R30,LOW(-128)
000b3b 4fff      	SBCI R31,HIGH(-128)
000b3c cfec      	RJMP SUBOPT_0x39
                 
                 ;OPTIMIZER ADDED SUBROUTINE, CALLED 4 TIMES, CODE SIZE REDUCTION:18 WORDS
                 SUBOPT_0x3D:
000b3d 93fa      	ST   -Y,R31
000b3e 93ea      	ST   -Y,R30
000b3f 01f2      	MOVW R30,R4
000b40 58e0      	SUBI R30,LOW(-65408)
000b41 40f0      	SBCI R31,HIGH(-65408)
000b42 93fa      	ST   -Y,R31
000b43 93ea      	ST   -Y,R30
000b44 cfde      	RJMP SUBOPT_0x38
                 
                 ;OPTIMIZER ADDED SUBROUTINE, CALLED 2 TIMES, CODE SIZE REDUCTION:4 WORDS
                 SUBOPT_0x3E:
000b45 93fa      	ST   -Y,R31
000b46 93ea      	ST   -Y,R30
000b47 01f2      	MOVW R30,R4
000b48 58e0      	SUBI R30,LOW(-128)
000b49 4fff      	SBCI R31,HIGH(-128)
000b4a 93fa      	ST   -Y,R31
000b4b 93ea      	ST   -Y,R30
000b4c cfd6      	RJMP SUBOPT_0x38
                 
                 ;OPTIMIZER ADDED SUBROUTINE, CALLED 9 TIMES, CODE SIZE REDUCTION:13 WORDS
                 SUBOPT_0x3F:
000b4d 93fa      	ST   -Y,R31
000b4e 93ea      	ST   -Y,R30
000b4f 93fa      	ST   -Y,R31
000b50 93ea      	ST   -Y,R30
000b51 9508      	RET
                 
                 ;OPTIMIZER ADDED SUBROUTINE, CALLED 2 TIMES, CODE SIZE REDUCTION:2 WORDS
                 SUBOPT_0x40:
000b52 01f2      	MOVW R30,R4
000b53 58e0      	SUBI R30,LOW(-65408)
000b54 40f0      	SBCI R31,HIGH(-65408)
000b55 93fa      	ST   -Y,R31
000b56 93ea      	ST   -Y,R30
000b57 cfcb      	RJMP SUBOPT_0x38
                 
                 ;OPTIMIZER ADDED SUBROUTINE, CALLED 3 TIMES, CODE SIZE REDUCTION:5 WORDS
                 SUBOPT_0x41:
000b58 940e 03dd 	CALL _compass
000b5a 940e 023a 	CALL _sensor
000b5c 940c 01b6 	JMP  _sharp
                 
                 ;OPTIMIZER ADDED SUBROUTINE, CALLED 4 TIMES, CODE SIZE REDUCTION:12 WORDS
                 SUBOPT_0x42:
000b5e 01d2      	MOVW R26,R4
000b5f 50a1      	SUBI R26,LOW(-255)
000b60 4fbf      	SBCI R27,HIGH(-255)
000b61 e0e4      	LDI  R30,LOW(4)
000b62 e0f0      	LDI  R31,HIGH(4)
000b63 940e 0c16 	CALL __DIVW21
000b65 9508      	RET
                 
                 ;OPTIMIZER ADDED SUBROUTINE, CALLED 3 TIMES, CODE SIZE REDUCTION:11 WORDS
                 SUBOPT_0x43:
000b66 93fa      	ST   -Y,R31
000b67 93ea      	ST   -Y,R30
000b68 01d2      	MOVW R26,R4
000b69 5faf      	SUBI R26,LOW(-65281)
000b6a 40b0      	SBCI R27,HIGH(-65281)
000b6b e0e4      	LDI  R30,LOW(4)
000b6c e0f0      	LDI  R31,HIGH(4)
000b6d 940e 0c16 	CALL __DIVW21
000b6f 9508      	RET
                 
                 ;OPTIMIZER ADDED SUBROUTINE, CALLED 3 TIMES, CODE SIZE REDUCTION:1 WORDS
                 SUBOPT_0x44:
000b70 93fa      	ST   -Y,R31
000b71 93ea      	ST   -Y,R30
000b72 cfeb      	RJMP SUBOPT_0x42
                 
                 ;OPTIMIZER ADDED SUBROUTINE, CALLED 2 TIMES, CODE SIZE REDUCTION:3 WORDS
                 SUBOPT_0x45:
000b73 0de4      	ADD  R30,R4
000b74 1df5      	ADC  R31,R5
000b75 93fa      	ST   -Y,R31
000b76 93ea      	ST   -Y,R30
000b77 91e0 050c 	LDS  R30,_RL
000b79 91f0 050d 	LDS  R31,_RL+1
000b7b 9508      	RET
                 
                 ;OPTIMIZER ADDED SUBROUTINE, CALLED 3 TIMES, CODE SIZE REDUCTION:5 WORDS
                 SUBOPT_0x46:
000b7c 940e 0927 	CALL __long_delay_G101
000b7e e3e0      	LDI  R30,LOW(48)
000b7f 93ea      	ST   -Y,R30
000b80 940c 092c 	JMP  __lcd_init_write_G101
                 
                 ;OPTIMIZER ADDED SUBROUTINE, CALLED 3 TIMES, CODE SIZE REDUCTION:3 WORDS
                 SUBOPT_0x47:
000b82 93ea      	ST   -Y,R30
000b83 940e 08b9 	CALL __lcd_write_data
000b85 940c 0927 	JMP  __long_delay_G101
                 
                 
                 	.CSEG
                 	.equ __i2c_dir=__i2c_port-1
                 	.equ __i2c_pin=__i2c_port-2
                 _i2c_init:
000b87 9890      	cbi  __i2c_port,__scl_bit
000b88 9891      	cbi  __i2c_port,__sda_bit
000b89 9a88      	sbi  __i2c_dir,__scl_bit
000b8a 9889      	cbi  __i2c_dir,__sda_bit
000b8b c015      	rjmp __i2c_delay2
                 _i2c_start:
000b8c 9889      	cbi  __i2c_dir,__sda_bit
000b8d 9888      	cbi  __i2c_dir,__scl_bit
000b8e 27ee      	clr  r30
000b8f 0000      	nop
000b90 9b81      	sbis __i2c_pin,__sda_bit
000b91 9508      	ret
000b92 9b80      	sbis __i2c_pin,__scl_bit
000b93 9508      	ret
000b94 d004      	rcall __i2c_delay1
000b95 9a89      	sbi  __i2c_dir,__sda_bit
000b96 d002      	rcall __i2c_delay1
000b97 9a88      	sbi  __i2c_dir,__scl_bit
000b98 e0e1      	ldi  r30,1
                 __i2c_delay1:
000b99 e162      	ldi  r22,18
000b9a c007      	rjmp __i2c_delay2l
                 _i2c_stop:
000b9b 9a89      	sbi  __i2c_dir,__sda_bit
000b9c 9a88      	sbi  __i2c_dir,__scl_bit
000b9d d003      	rcall __i2c_delay2
000b9e 9888      	cbi  __i2c_dir,__scl_bit
000b9f dff9      	rcall __i2c_delay1
000ba0 9889      	cbi  __i2c_dir,__sda_bit
                 __i2c_delay2:
000ba1 e265      	ldi  r22,37
                 __i2c_delay2l:
000ba2 956a      	dec  r22
000ba3 f7f1      	brne __i2c_delay2l
000ba4 9508      	ret
                 _i2c_read:
000ba5 e078      	ldi  r23,8
                 __i2c_read0:
000ba6 9888      	cbi  __i2c_dir,__scl_bit
000ba7 dff1      	rcall __i2c_delay1
                 __i2c_read3:
000ba8 9b80      	sbis __i2c_pin,__scl_bit
000ba9 cffe      	rjmp __i2c_read3
000baa dfee      	rcall __i2c_delay1
000bab 9488      	clc
000bac 9981      	sbic __i2c_pin,__sda_bit
000bad 9408      	sec
000bae 9a88      	sbi  __i2c_dir,__scl_bit
000baf dff1      	rcall __i2c_delay2
000bb0 1fee      	rol  r30
000bb1 957a      	dec  r23
000bb2 f799      	brne __i2c_read0
000bb3 9179      	ld   r23,y+
000bb4 2377      	tst  r23
000bb5 f411      	brne __i2c_read1
000bb6 9889      	cbi  __i2c_dir,__sda_bit
000bb7 c001      	rjmp __i2c_read2
                 __i2c_read1:
000bb8 9a89      	sbi  __i2c_dir,__sda_bit
                 __i2c_read2:
000bb9 dfdf      	rcall __i2c_delay1
000bba 9888      	cbi  __i2c_dir,__scl_bit
000bbb dfe5      	rcall __i2c_delay2
000bbc 9a88      	sbi  __i2c_dir,__scl_bit
000bbd dfdb      	rcall __i2c_delay1
000bbe 9889      	cbi  __i2c_dir,__sda_bit
000bbf cfd9      	rjmp __i2c_delay1
                 
                 _i2c_write:
000bc0 91e9      	ld   r30,y+
000bc1 e078      	ldi  r23,8
                 __i2c_write0:
000bc2 0fee      	lsl  r30
000bc3 f410      	brcc __i2c_write1
000bc4 9889      	cbi  __i2c_dir,__sda_bit
000bc5 c001      	rjmp __i2c_write2
                 __i2c_write1:
000bc6 9a89      	sbi  __i2c_dir,__sda_bit
                 __i2c_write2:
000bc7 dfd9      	rcall __i2c_delay2
000bc8 9888      	cbi  __i2c_dir,__scl_bit
000bc9 dfcf      	rcall __i2c_delay1
                 __i2c_write3:
000bca 9b80      	sbis __i2c_pin,__scl_bit
000bcb cffe      	rjmp __i2c_write3
000bcc dfcc      	rcall __i2c_delay1
000bcd 9a88      	sbi  __i2c_dir,__scl_bit
000bce 957a      	dec  r23
000bcf f791      	brne __i2c_write0
000bd0 9889      	cbi  __i2c_dir,__sda_bit
000bd1 dfc7      	rcall __i2c_delay1
000bd2 9888      	cbi  __i2c_dir,__scl_bit
000bd3 dfcd      	rcall __i2c_delay2
000bd4 e0e1      	ldi  r30,1
000bd5 9981      	sbic __i2c_pin,__sda_bit
000bd6 27ee      	clr  r30
000bd7 9a88      	sbi  __i2c_dir,__scl_bit
000bd8 9508      	ret
                 
                 _delay_ms:
000bd9 91e9      	ld   r30,y+
000bda 91f9      	ld   r31,y+
000bdb 9630      	adiw r30,0
000bdc f039      	breq __delay_ms1
                 __delay_ms0:
                +
000bdd ec8d     +LDI R24 , LOW ( 0xACD )
000bde e09a     +LDI R25 , HIGH ( 0xACD )
                +__DELAY_USW_LOOP :
000bdf 9701     +SBIW R24 , 1
000be0 f7f1     +BRNE __DELAY_USW_LOOP
                 	__DELAY_USW 0xACD
000be1 95a8      	wdr
000be2 9731      	sbiw r30,1
000be3 f7c9      	brne __delay_ms0
                 __delay_ms1:
000be4 9508      	ret
                 
                 __ANEGW1:
000be5 95f1      	NEG  R31
000be6 95e1      	NEG  R30
000be7 40f0      	SBCI R31,0
000be8 9508      	RET
                 
                 __ANEGD1:
000be9 95f0      	COM  R31
000bea 9560      	COM  R22
000beb 9570      	COM  R23
000bec 95e1      	NEG  R30
000bed 4fff      	SBCI R31,-1
000bee 4f6f      	SBCI R22,-1
000bef 4f7f      	SBCI R23,-1
000bf0 9508      	RET
                 
                 __CWD1:
000bf1 2f6f      	MOV  R22,R31
000bf2 0f66      	ADD  R22,R22
000bf3 0b66      	SBC  R22,R22
000bf4 2f76      	MOV  R23,R22
000bf5 9508      	RET
                 
                 __MULW12U:
000bf6 9ffa      	MUL  R31,R26
000bf7 2df0      	MOV  R31,R0
000bf8 9feb      	MUL  R30,R27
000bf9 0df0      	ADD  R31,R0
000bfa 9fea      	MUL  R30,R26
000bfb 2de0      	MOV  R30,R0
000bfc 0df1      	ADD  R31,R1
000bfd 9508      	RET
                 
                 __MULW12:
000bfe d02a      	RCALL __CHKSIGNW
000bff dff6      	RCALL __MULW12U
000c00 f40e      	BRTC __MULW121
000c01 dfe3      	RCALL __ANEGW1
                 __MULW121:
000c02 9508      	RET
                 
                 __DIVW21U:
000c03 2400      	CLR  R0
000c04 2411      	CLR  R1
000c05 e190      	LDI  R25,16
                 __DIVW21U1:
000c06 0faa      	LSL  R26
000c07 1fbb      	ROL  R27
000c08 1c00      	ROL  R0
000c09 1c11      	ROL  R1
000c0a 1a0e      	SUB  R0,R30
000c0b 0a1f      	SBC  R1,R31
000c0c f418      	BRCC __DIVW21U2
000c0d 0e0e      	ADD  R0,R30
000c0e 1e1f      	ADC  R1,R31
000c0f c001      	RJMP __DIVW21U3
                 __DIVW21U2:
000c10 60a1      	SBR  R26,1
                 __DIVW21U3:
000c11 959a      	DEC  R25
000c12 f799      	BRNE __DIVW21U1
000c13 01fd      	MOVW R30,R26
000c14 01d0      	MOVW R26,R0
000c15 9508      	RET
                 
                 __DIVW21:
000c16 d012      	RCALL __CHKSIGNW
000c17 dfeb      	RCALL __DIVW21U
000c18 f40e      	BRTC __DIVW211
000c19 dfcb      	RCALL __ANEGW1
                 __DIVW211:
000c1a 9508      	RET
                 
                 __MODW21:
000c1b 94e8      	CLT
000c1c ffb7      	SBRS R27,7
000c1d c004      	RJMP __MODW211
000c1e 95a0      	COM  R26
000c1f 95b0      	COM  R27
000c20 9611      	ADIW R26,1
000c21 9468      	SET
                 __MODW211:
000c22 fdf7      	SBRC R31,7
000c23 dfc1      	RCALL __ANEGW1
000c24 dfde      	RCALL __DIVW21U
000c25 01fd      	MOVW R30,R26
000c26 f40e      	BRTC __MODW212
000c27 dfbd      	RCALL __ANEGW1
                 __MODW212:
000c28 9508      	RET
                 
                 __CHKSIGNW:
000c29 94e8      	CLT
000c2a fff7      	SBRS R31,7
000c2b c002      	RJMP __CHKSW1
000c2c dfb8      	RCALL __ANEGW1
000c2d 9468      	SET
                 __CHKSW1:
000c2e ffb7      	SBRS R27,7
000c2f c006      	RJMP __CHKSW2
000c30 95a0      	COM  R26
000c31 95b0      	COM  R27
000c32 9611      	ADIW R26,1
000c33 f800      	BLD  R0,0
000c34 9403      	INC  R0
000c35 fa00      	BST  R0,0
                 __CHKSW2:
000c36 9508      	RET
                 
                 __GETW1P:
000c37 91ed      	LD   R30,X+
000c38 91fc      	LD   R31,X
000c39 9711      	SBIW R26,1
000c3a 9508      	RET
                 
                 __EEPROMRDW:
000c3b 9611      	ADIW R26,1
000c3c d002      	RCALL __EEPROMRDB
000c3d 2ffe      	MOV  R31,R30
000c3e 9711      	SBIW R26,1
                 
                 __EEPROMRDB:
000c3f 99e1      	SBIC EECR,EEWE
000c40 cffe      	RJMP __EEPROMRDB
000c41 93ff      	PUSH R31
000c42 b7ff      	IN   R31,SREG
000c43 94f8      	CLI
000c44 bbae      	OUT  EEARL,R26
000c45 bbbf      	OUT  EEARH,R27
000c46 9ae0      	SBI  EECR,EERE
000c47 b3ed      	IN   R30,EEDR
000c48 bfff      	OUT  SREG,R31
000c49 91ff      	POP  R31
000c4a 9508      	RET
                 
                 __EEPROMWRW:
000c4b d007      	RCALL __EEPROMWRB
000c4c 9611      	ADIW R26,1
000c4d 93ef      	PUSH R30
000c4e 2fef      	MOV  R30,R31
000c4f d003      	RCALL __EEPROMWRB
000c50 91ef      	POP  R30
000c51 9711      	SBIW R26,1
000c52 9508      	RET
                 
                 __EEPROMWRB:
000c53 9be1      	SBIS EECR,EEWE
000c54 c002      	RJMP __EEPROMWRB1
000c55 95a8      	WDR
000c56 cffc      	RJMP __EEPROMWRB
                 __EEPROMWRB1:
000c57 b79f      	IN   R25,SREG
000c58 94f8      	CLI
000c59 bbae      	OUT  EEARL,R26
000c5a bbbf      	OUT  EEARH,R27
000c5b 9ae0      	SBI  EECR,EERE
000c5c b38d      	IN   R24,EEDR
000c5d 17e8      	CP   R30,R24
000c5e f019      	BREQ __EEPROMWRB0
000c5f bbed      	OUT  EEDR,R30
000c60 9ae2      	SBI  EECR,EEMWE
000c61 9ae1      	SBI  EECR,EEWE
                 __EEPROMWRB0:
000c62 bf9f      	OUT  SREG,R25
000c63 9508      	RET
                 
                 __ROUND_REPACK:
000c64 2355      	TST  R21
000c65 f442      	BRPL __REPACK
000c66 3850      	CPI  R21,0x80
000c67 f411      	BRNE __ROUND_REPACK0
000c68 ffe0      	SBRS R30,0
000c69 c004      	RJMP __REPACK
                 __ROUND_REPACK0:
000c6a 9631      	ADIW R30,1
000c6b 1f69      	ADC  R22,R25
000c6c 1f79      	ADC  R23,R25
000c6d f06b      	BRVS __REPACK1
                 
                 __REPACK:
000c6e e850      	LDI  R21,0x80
000c6f 2757      	EOR  R21,R23
000c70 f411      	BRNE __REPACK0
000c71 935f      	PUSH R21
000c72 c073      	RJMP __ZERORES
                 __REPACK0:
000c73 3f5f      	CPI  R21,0xFF
000c74 f031      	BREQ __REPACK1
000c75 0f66      	LSL  R22
000c76 0c00      	LSL  R0
000c77 9557      	ROR  R21
000c78 9567      	ROR  R22
000c79 2f75      	MOV  R23,R21
000c7a 9508      	RET
                 __REPACK1:
000c7b 935f      	PUSH R21
000c7c 2000      	TST  R0
000c7d f00a      	BRMI __REPACK2
000c7e c073      	RJMP __MAXRES
                 __REPACK2:
000c7f c06c      	RJMP __MINRES
                 
                 __UNPACK:
000c80 e850      	LDI  R21,0x80
000c81 2e19      	MOV  R1,R25
000c82 2215      	AND  R1,R21
000c83 0f88      	LSL  R24
000c84 1f99      	ROL  R25
000c85 2795      	EOR  R25,R21
000c86 0f55      	LSL  R21
000c87 9587      	ROR  R24
                 
                 __UNPACK1:
000c88 e850      	LDI  R21,0x80
000c89 2e07      	MOV  R0,R23
000c8a 2205      	AND  R0,R21
000c8b 0f66      	LSL  R22
000c8c 1f77      	ROL  R23
000c8d 2775      	EOR  R23,R21
000c8e 0f55      	LSL  R21
000c8f 9567      	ROR  R22
000c90 9508      	RET
                 
                 __CFD1U:
000c91 9468      	SET
000c92 c001      	RJMP __CFD1U0
                 __CFD1:
000c93 94e8      	CLT
                 __CFD1U0:
000c94 935f      	PUSH R21
000c95 dff2      	RCALL __UNPACK1
000c96 3870      	CPI  R23,0x80
000c97 f018      	BRLO __CFD10
000c98 3f7f      	CPI  R23,0xFF
000c99 f408      	BRCC __CFD10
000c9a c04b      	RJMP __ZERORES
                 __CFD10:
000c9b e156      	LDI  R21,22
000c9c 1b57      	SUB  R21,R23
000c9d f4aa      	BRPL __CFD11
000c9e 9551      	NEG  R21
000c9f 3058      	CPI  R21,8
000ca0 f40e      	BRTC __CFD19
000ca1 3059      	CPI  R21,9
                 __CFD19:
000ca2 f030      	BRLO __CFD17
000ca3 efef      	SER  R30
000ca4 efff      	SER  R31
000ca5 ef6f      	SER  R22
000ca6 e77f      	LDI  R23,0x7F
000ca7 f977      	BLD  R23,7
000ca8 c01a      	RJMP __CFD15
                 __CFD17:
000ca9 2777      	CLR  R23
000caa 2355      	TST  R21
000cab f0b9      	BREQ __CFD15
                 __CFD18:
000cac 0fee      	LSL  R30
000cad 1fff      	ROL  R31
000cae 1f66      	ROL  R22
000caf 1f77      	ROL  R23
000cb0 955a      	DEC  R21
000cb1 f7d1      	BRNE __CFD18
000cb2 c010      	RJMP __CFD15
                 __CFD11:
000cb3 2777      	CLR  R23
                 __CFD12:
000cb4 3058      	CPI  R21,8
000cb5 f028      	BRLO __CFD13
000cb6 2fef      	MOV  R30,R31
000cb7 2ff6      	MOV  R31,R22
000cb8 2f67      	MOV  R22,R23
000cb9 5058      	SUBI R21,8
000cba cff9      	RJMP __CFD12
                 __CFD13:
000cbb 2355      	TST  R21
000cbc f031      	BREQ __CFD15
                 __CFD14:
000cbd 9576      	LSR  R23
000cbe 9567      	ROR  R22
000cbf 95f7      	ROR  R31
000cc0 95e7      	ROR  R30
000cc1 955a      	DEC  R21
000cc2 f7d1      	BRNE __CFD14
                 __CFD15:
000cc3 2000      	TST  R0
000cc4 f40a      	BRPL __CFD16
000cc5 df23      	RCALL __ANEGD1
                 __CFD16:
000cc6 915f      	POP  R21
000cc7 9508      	RET
                 
                 __CDF1U:
000cc8 9468      	SET
000cc9 c001      	RJMP __CDF1U0
                 __CDF1:
000cca 94e8      	CLT
                 __CDF1U0:
000ccb 9730      	SBIW R30,0
000ccc 4060      	SBCI R22,0
000ccd 4070      	SBCI R23,0
000cce f0b1      	BREQ __CDF10
000ccf 2400      	CLR  R0
000cd0 f026      	BRTS __CDF11
000cd1 2377      	TST  R23
000cd2 f412      	BRPL __CDF11
000cd3 9400      	COM  R0
000cd4 df14      	RCALL __ANEGD1
                 __CDF11:
000cd5 2e17      	MOV  R1,R23
000cd6 e17e      	LDI  R23,30
000cd7 2011      	TST  R1
                 __CDF12:
000cd8 f032      	BRMI __CDF13
000cd9 957a      	DEC  R23
000cda 0fee      	LSL  R30
000cdb 1fff      	ROL  R31
000cdc 1f66      	ROL  R22
000cdd 1c11      	ROL  R1
000cde cff9      	RJMP __CDF12
                 __CDF13:
000cdf 2fef      	MOV  R30,R31
000ce0 2ff6      	MOV  R31,R22
000ce1 2d61      	MOV  R22,R1
000ce2 935f      	PUSH R21
000ce3 df8a      	RCALL __REPACK
000ce4 915f      	POP  R21
                 __CDF10:
000ce5 9508      	RET
                 
                 __ZERORES:
000ce6 27ee      	CLR  R30
000ce7 27ff      	CLR  R31
000ce8 2766      	CLR  R22
000ce9 2777      	CLR  R23
000cea 915f      	POP  R21
000ceb 9508      	RET
                 
                 __MINRES:
000cec efef      	SER  R30
000ced efff      	SER  R31
000cee e76f      	LDI  R22,0x7F
000cef ef7f      	SER  R23
000cf0 915f      	POP  R21
000cf1 9508      	RET
                 
                 __MAXRES:
000cf2 efef      	SER  R30
000cf3 efff      	SER  R31
000cf4 e76f      	LDI  R22,0x7F
000cf5 e77f      	LDI  R23,0x7F
000cf6 915f      	POP  R21
000cf7 9508      	RET
                 
                 __MULF12:
000cf8 935f      	PUSH R21
000cf9 df86      	RCALL __UNPACK
000cfa 3870      	CPI  R23,0x80
000cfb f351      	BREQ __ZERORES
000cfc 3890      	CPI  R25,0x80
000cfd f341      	BREQ __ZERORES
000cfe 2401      	EOR  R0,R1
000cff 9408      	SEC
000d00 1f79      	ADC  R23,R25
000d01 f423      	BRVC __MULF124
000d02 f31c      	BRLT __ZERORES
                 __MULF125:
000d03 2000      	TST  R0
000d04 f33a      	BRMI __MINRES
000d05 cfec      	RJMP __MAXRES
                 __MULF124:
000d06 920f      	PUSH R0
000d07 931f      	PUSH R17
000d08 932f      	PUSH R18
000d09 933f      	PUSH R19
000d0a 934f      	PUSH R20
000d0b 2711      	CLR  R17
000d0c 2722      	CLR  R18
000d0d 2799      	CLR  R25
000d0e 9f68      	MUL  R22,R24
000d0f 01a0      	MOVW R20,R0
000d10 9f8f      	MUL  R24,R31
000d11 2d30      	MOV  R19,R0
000d12 0d41      	ADD  R20,R1
000d13 1f59      	ADC  R21,R25
000d14 9f6b      	MUL  R22,R27
000d15 0d30      	ADD  R19,R0
000d16 1d41      	ADC  R20,R1
000d17 1f59      	ADC  R21,R25
000d18 9f8e      	MUL  R24,R30
000d19 d027      	RCALL __MULF126
000d1a 9fbf      	MUL  R27,R31
000d1b d025      	RCALL __MULF126
000d1c 9f6a      	MUL  R22,R26
000d1d d023      	RCALL __MULF126
000d1e 9fbe      	MUL  R27,R30
000d1f d01d      	RCALL __MULF127
000d20 9faf      	MUL  R26,R31
000d21 d01b      	RCALL __MULF127
000d22 9fae      	MUL  R26,R30
000d23 0d11      	ADD  R17,R1
000d24 1f29      	ADC  R18,R25
000d25 1f39      	ADC  R19,R25
000d26 1f49      	ADC  R20,R25
000d27 1f59      	ADC  R21,R25
000d28 2fe3      	MOV  R30,R19
000d29 2ff4      	MOV  R31,R20
000d2a 2f65      	MOV  R22,R21
000d2b 2f52      	MOV  R21,R18
000d2c 914f      	POP  R20
000d2d 913f      	POP  R19
000d2e 912f      	POP  R18
000d2f 911f      	POP  R17
000d30 900f      	POP  R0
000d31 2366      	TST  R22
000d32 f02a      	BRMI __MULF122
000d33 0f55      	LSL  R21
000d34 1fee      	ROL  R30
000d35 1fff      	ROL  R31
000d36 1f66      	ROL  R22
000d37 c002      	RJMP __MULF123
                 __MULF122:
000d38 9573      	INC  R23
000d39 f24b      	BRVS __MULF125
                 __MULF123:
000d3a df29      	RCALL __ROUND_REPACK
000d3b 915f      	POP  R21
000d3c 9508      	RET
                 
                 __MULF127:
000d3d 0d10      	ADD  R17,R0
000d3e 1d21      	ADC  R18,R1
000d3f 1f39      	ADC  R19,R25
000d40 c002      	RJMP __MULF128
                 __MULF126:
000d41 0d20      	ADD  R18,R0
000d42 1d31      	ADC  R19,R1
                 __MULF128:
000d43 1f49      	ADC  R20,R25
000d44 1f59      	ADC  R21,R25
000d45 9508      	RET
                 
                 __CPW02:
000d46 2400      	CLR  R0
000d47 160a      	CP   R0,R26
000d48 060b      	CPC  R0,R27
000d49 9508      	RET
                 
                 ;END OF CODE MARKER
                 __END_OF_CODE:


RESOURCE USE INFORMATION
------------------------

Notice:
The register and instruction counts are symbol table hit counts,
and hence implicitly used resources are not counted, eg, the
'lpm' instruction without operands implicitly uses r0 and z,
none of which are counted.

x,y,z are separate entities in the symbol table and are
counted separately from r26..r31 here.

.dseg memory usage only counts static data declared with .byte

ATmega64 register use summary:
r0 :  53 r1 :  24 r2 :   1 r3 :   0 r4 :  53 r5 :  15 r6 :   0 r7 :   4 
r8 :   4 r9 :   3 r10:  10 r11:   7 r12:   9 r13:   4 r14:   0 r15:   2 
r16:   7 r17:  13 r18:   7 r19:   8 r20:   8 r21:  44 r22:  38 r23:  38 
r24:  24 r25:  30 r26: 292 r27: 144 r28:   6 r29:   1 r30: 644 r31: 281 
x  :  19 y  : 206 z  :   9 
Registers used: 32 out of 35 (91.4%)

ATmega64 instruction use summary:
adc   :  33 add   :  26 adiw  :  22 and   :   4 andi  :   8 asr   :   0 
bclr  :   0 bld   :   3 brbc  :   0 brbs  :   0 brcc  :   3 brcs  :   0 
break :   0 breq  :  26 brge  :  49 brhc  :   0 brhs  :   0 brid  :   0 
brie  :   0 brlo  :   3 brlt  :  63 brmi  :  10 brne  :  55 brpl  :   9 
brsh  :   1 brtc  :   4 brts  :   2 brvc  :   1 brvs  :   2 bset  :   0 
bst   :   1 call  : 466 cbi   :  33 cbr   :   0 clc   :   1 clh   :   0 
cli   :   7 cln   :   0 clr   :  34 cls   :   0 clt   :   5 clv   :   0 
clz   :   0 com   :   8 cp    :  19 cpc   :  57 cpi   :  60 cpse  :   0 
dec   :  10 des   :   0 eor   :   4 fmul  :   0 fmuls :   0 fmulsu:   0 
icall :   0 ijmp  :   0 in    :  16 inc   :   5 jmp   :  52 ld    :  39 
ldd   :  33 ldi   : 325 lds   : 105 lpm   :   7 lsl   :  15 lsr   :   1 
mov   :  28 movw  :  61 mul   :  12 muls  :   0 mulsu :   0 neg   :   4 
nop   :   1 or    :   2 ori   :   5 out   :  65 pop   :  19 push  :  18 
rcall :  68 ret   : 100 reti  :   1 rjmp  : 133 rol   :  19 ror   :   7 
sbc   :  11 sbci  :  36 sbi   :  32 sbic  :   4 sbis  :   5 sbiw  :  76 
sbr   :   1 sbrc  :   2 sbrs  :   4 sec   :   2 seh   :   0 sei   :   4 
sen   :   0 ser   :  11 ses   :   0 set   :   6 sev   :   0 sez   :   0 
sleep :   0 spm   :   0 st    : 141 std   :  14 sts   :  69 sub   :  11 
subi  :  32 swap  :   2 tst   :  21 wdr   :  38 
Instructions used: 79 out of 112 (70.5%)

ATmega64 memory use summary [bytes]:
Segment   Begin    End      Code   Data   Used    Size   Use%
---------------------------------------------------------------
[.cseg] 0x000000 0x001a94   6768     36   6804   65536  10.4%
[.dseg] 0x000100 0x00056c      0    108    108    4096   2.6%
[.eseg] 0x000000 0x000002      0      2      2    2048   0.1%

Assembly complete, 0 errors, 7 warnings
