
AVRASM ver. 2.1.30  D:\project\code visionAVR\nokia 5110 test\Debug\List\t1.asm Sun Sep 17 14:33:43 2017

D:\project\code visionAVR\nokia 5110 test\Debug\List\t1.asm(1088): warning: Register r4 already defined by the .DEF directive
D:\project\code visionAVR\nokia 5110 test\Debug\List\t1.asm(1089): warning: Register r5 already defined by the .DEF directive
D:\project\code visionAVR\nokia 5110 test\Debug\List\t1.asm(1090): warning: Register r6 already defined by the .DEF directive
D:\project\code visionAVR\nokia 5110 test\Debug\List\t1.asm(1091): warning: Register r7 already defined by the .DEF directive
D:\project\code visionAVR\nokia 5110 test\Debug\List\t1.asm(1092): warning: Register r8 already defined by the .DEF directive
D:\project\code visionAVR\nokia 5110 test\Debug\List\t1.asm(1093): warning: Register r9 already defined by the .DEF directive
D:\project\code visionAVR\nokia 5110 test\Debug\List\t1.asm(1094): warning: Register r10 already defined by the .DEF directive
D:\project\code visionAVR\nokia 5110 test\Debug\List\t1.asm(1095): warning: Register r11 already defined by the .DEF directive
D:\project\code visionAVR\nokia 5110 test\Debug\List\t1.asm(1096): warning: Register r12 already defined by the .DEF directive
D:\project\code visionAVR\nokia 5110 test\Debug\List\t1.asm(1097): warning: Register r13 already defined by the .DEF directive
                 
                 
                 ;CodeVisionAVR C Compiler V3.12 Advanced
                 ;(C) Copyright 1998-2014 Pavel Haiduc, HP InfoTech s.r.l.
                 ;http://www.hpinfotech.com
                 
                 ;Build configuration    : Debug
                 ;Chip type              : ATmega16A
                 ;Program type           : Application
                 ;Clock frequency        : 8/000000 MHz
                 ;Memory model           : Small
                 ;Optimize for           : Size
                 ;(s)printf features     : int, width
                 ;(s)scanf features      : int, width
                 ;External RAM size      : 0
                 ;Data Stack size        : 256 byte(s)
                 ;Heap size              : 0 byte(s)
                 ;Promote 'char' to 'int': Yes
                 ;'char' is unsigned     : Yes
                 ;8 bit enums            : Yes
                 ;Global 'const' stored in FLASH: Yes
                 ;Enhanced function parameter passing: Yes
                 ;Enhanced core instructions: On
                 ;Automatic register allocation for global variables: On
                 ;Smart register allocation: On
                 
                 	#define _MODEL_SMALL_
                 
                 	#pragma AVRPART ADMIN PART_NAME ATmega16A
                 	#pragma AVRPART MEMORY PROG_FLASH 16384
                 	#pragma AVRPART MEMORY EEPROM 512
                 	#pragma AVRPART MEMORY INT_SRAM SIZE 1024
                 	#pragma AVRPART MEMORY INT_SRAM START_ADDR 0x60
                 
                 	#define CALL_SUPPORTED 1
                 
                 	.LISTMAC
                 	.EQU UDRE=0x5
                 	.EQU RXC=0x7
                 	.EQU USR=0xB
                 	.EQU UDR=0xC
                 	.EQU SPSR=0xE
                 	.EQU SPDR=0xF
                 	.EQU EERE=0x0
                 	.EQU EEWE=0x1
                 	.EQU EEMWE=0x2
                 	.EQU EECR=0x1C
                 	.EQU EEDR=0x1D
                 	.EQU EEARL=0x1E
                 	.EQU EEARH=0x1F
                 	.EQU WDTCR=0x21
                 	.EQU MCUCR=0x35
                 	.EQU GICR=0x3B
                 	.EQU SPL=0x3D
                 	.EQU SPH=0x3E
                 	.EQU SREG=0x3F
                 
                 	.DEF R0X0=R0
                 	.DEF R0X1=R1
                 	.DEF R0X2=R2
                 	.DEF R0X3=R3
                 	.DEF R0X4=R4
                 	.DEF R0X5=R5
                 	.DEF R0X6=R6
                 	.DEF R0X7=R7
                 	.DEF R0X8=R8
                 	.DEF R0X9=R9
                 	.DEF R0XA=R10
                 	.DEF R0XB=R11
                 	.DEF R0XC=R12
                 	.DEF R0XD=R13
                 	.DEF R0XE=R14
                 	.DEF R0XF=R15
                 	.DEF R0X10=R16
                 	.DEF R0X11=R17
                 	.DEF R0X12=R18
                 	.DEF R0X13=R19
                 	.DEF R0X14=R20
                 	.DEF R0X15=R21
                 	.DEF R0X16=R22
                 	.DEF R0X17=R23
                 	.DEF R0X18=R24
                 	.DEF R0X19=R25
                 	.DEF R0X1A=R26
                 	.DEF R0X1B=R27
                 	.DEF R0X1C=R28
                 	.DEF R0X1D=R29
                 	.DEF R0X1E=R30
                 	.DEF R0X1F=R31
                 
                 	.EQU __SRAM_START=0x0060
                 	.EQU __SRAM_END=0x045F
                 	.EQU __DSTACK_SIZE=0x0100
                 	.EQU __HEAP_SIZE=0x0000
                 	.EQU __CLEAR_SRAM_SIZE=__SRAM_END-__SRAM_START+1
                 
                 	.MACRO __CPD1N
                 	CPI  R30,LOW(@0)
                 	LDI  R26,HIGH(@0)
                 	CPC  R31,R26
                 	LDI  R26,BYTE3(@0)
                 	CPC  R22,R26
                 	LDI  R26,BYTE4(@0)
                 	CPC  R23,R26
                 	.ENDM
                 
                 	.MACRO __CPD2N
                 	CPI  R26,LOW(@0)
                 	LDI  R30,HIGH(@0)
                 	CPC  R27,R30
                 	LDI  R30,BYTE3(@0)
                 	CPC  R24,R30
                 	LDI  R30,BYTE4(@0)
                 	CPC  R25,R30
                 	.ENDM
                 
                 	.MACRO __CPWRR
                 	CP   R@0,R@2
                 	CPC  R@1,R@3
                 	.ENDM
                 
                 	.MACRO __CPWRN
                 	CPI  R@0,LOW(@2)
                 	LDI  R30,HIGH(@2)
                 	CPC  R@1,R30
                 	.ENDM
                 
                 	.MACRO __ADDB1MN
                 	SUBI R30,LOW(-@0-(@1))
                 	.ENDM
                 
                 	.MACRO __ADDB2MN
                 	SUBI R26,LOW(-@0-(@1))
                 	.ENDM
                 
                 	.MACRO __ADDW1MN
                 	SUBI R30,LOW(-@0-(@1))
                 	SBCI R31,HIGH(-@0-(@1))
                 	.ENDM
                 
                 	.MACRO __ADDW2MN
                 	SUBI R26,LOW(-@0-(@1))
                 	SBCI R27,HIGH(-@0-(@1))
                 	.ENDM
                 
                 	.MACRO __ADDW1FN
                 	SUBI R30,LOW(-2*@0-(@1))
                 	SBCI R31,HIGH(-2*@0-(@1))
                 	.ENDM
                 
                 	.MACRO __ADDD1FN
                 	SUBI R30,LOW(-2*@0-(@1))
                 	SBCI R31,HIGH(-2*@0-(@1))
                 	SBCI R22,BYTE3(-2*@0-(@1))
                 	.ENDM
                 
                 	.MACRO __ADDD1N
                 	SUBI R30,LOW(-@0)
                 	SBCI R31,HIGH(-@0)
                 	SBCI R22,BYTE3(-@0)
                 	SBCI R23,BYTE4(-@0)
                 	.ENDM
                 
                 	.MACRO __ADDD2N
                 	SUBI R26,LOW(-@0)
                 	SBCI R27,HIGH(-@0)
                 	SBCI R24,BYTE3(-@0)
                 	SBCI R25,BYTE4(-@0)
                 	.ENDM
                 
                 	.MACRO __SUBD1N
                 	SUBI R30,LOW(@0)
                 	SBCI R31,HIGH(@0)
                 	SBCI R22,BYTE3(@0)
                 	SBCI R23,BYTE4(@0)
                 	.ENDM
                 
                 	.MACRO __SUBD2N
                 	SUBI R26,LOW(@0)
                 	SBCI R27,HIGH(@0)
                 	SBCI R24,BYTE3(@0)
                 	SBCI R25,BYTE4(@0)
                 	.ENDM
                 
                 	.MACRO __ANDBMNN
                 	LDS  R30,@0+(@1)
                 	ANDI R30,LOW(@2)
                 	STS  @0+(@1),R30
                 	.ENDM
                 
                 	.MACRO __ANDWMNN
                 	LDS  R30,@0+(@1)
                 	ANDI R30,LOW(@2)
                 	STS  @0+(@1),R30
                 	LDS  R30,@0+(@1)+1
                 	ANDI R30,HIGH(@2)
                 	STS  @0+(@1)+1,R30
                 	.ENDM
                 
                 	.MACRO __ANDD1N
                 	ANDI R30,LOW(@0)
                 	ANDI R31,HIGH(@0)
                 	ANDI R22,BYTE3(@0)
                 	ANDI R23,BYTE4(@0)
                 	.ENDM
                 
                 	.MACRO __ANDD2N
                 	ANDI R26,LOW(@0)
                 	ANDI R27,HIGH(@0)
                 	ANDI R24,BYTE3(@0)
                 	ANDI R25,BYTE4(@0)
                 	.ENDM
                 
                 	.MACRO __ORBMNN
                 	LDS  R30,@0+(@1)
                 	ORI  R30,LOW(@2)
                 	STS  @0+(@1),R30
                 	.ENDM
                 
                 	.MACRO __ORWMNN
                 	LDS  R30,@0+(@1)
                 	ORI  R30,LOW(@2)
                 	STS  @0+(@1),R30
                 	LDS  R30,@0+(@1)+1
                 	ORI  R30,HIGH(@2)
                 	STS  @0+(@1)+1,R30
                 	.ENDM
                 
                 	.MACRO __ORD1N
                 	ORI  R30,LOW(@0)
                 	ORI  R31,HIGH(@0)
                 	ORI  R22,BYTE3(@0)
                 	ORI  R23,BYTE4(@0)
                 	.ENDM
                 
                 	.MACRO __ORD2N
                 	ORI  R26,LOW(@0)
                 	ORI  R27,HIGH(@0)
                 	ORI  R24,BYTE3(@0)
                 	ORI  R25,BYTE4(@0)
                 	.ENDM
                 
                 	.MACRO __DELAY_USB
                 	LDI  R24,LOW(@0)
                 __DELAY_USB_LOOP:
                 	DEC  R24
                 	BRNE __DELAY_USB_LOOP
                 	.ENDM
                 
                 	.MACRO __DELAY_USW
                 	LDI  R24,LOW(@0)
                 	LDI  R25,HIGH(@0)
                 __DELAY_USW_LOOP:
                 	SBIW R24,1
                 	BRNE __DELAY_USW_LOOP
                 	.ENDM
                 
                 	.MACRO __GETD1S
                 	LDD  R30,Y+@0
                 	LDD  R31,Y+@0+1
                 	LDD  R22,Y+@0+2
                 	LDD  R23,Y+@0+3
                 	.ENDM
                 
                 	.MACRO __GETD2S
                 	LDD  R26,Y+@0
                 	LDD  R27,Y+@0+1
                 	LDD  R24,Y+@0+2
                 	LDD  R25,Y+@0+3
                 	.ENDM
                 
                 	.MACRO __PUTD1S
                 	STD  Y+@0,R30
                 	STD  Y+@0+1,R31
                 	STD  Y+@0+2,R22
                 	STD  Y+@0+3,R23
                 	.ENDM
                 
                 	.MACRO __PUTD2S
                 	STD  Y+@0,R26
                 	STD  Y+@0+1,R27
                 	STD  Y+@0+2,R24
                 	STD  Y+@0+3,R25
                 	.ENDM
                 
                 	.MACRO __PUTDZ2
                 	STD  Z+@0,R26
                 	STD  Z+@0+1,R27
                 	STD  Z+@0+2,R24
                 	STD  Z+@0+3,R25
                 	.ENDM
                 
                 	.MACRO __CLRD1S
                 	STD  Y+@0,R30
                 	STD  Y+@0+1,R30
                 	STD  Y+@0+2,R30
                 	STD  Y+@0+3,R30
                 	.ENDM
                 
                 	.MACRO __POINTB1MN
                 	LDI  R30,LOW(@0+(@1))
                 	.ENDM
                 
                 	.MACRO __POINTW1MN
                 	LDI  R30,LOW(@0+(@1))
                 	LDI  R31,HIGH(@0+(@1))
                 	.ENDM
                 
                 	.MACRO __POINTD1M
                 	LDI  R30,LOW(@0)
                 	LDI  R31,HIGH(@0)
                 	LDI  R22,BYTE3(@0)
                 	LDI  R23,BYTE4(@0)
                 	.ENDM
                 
                 	.MACRO __POINTW1FN
                 	LDI  R30,LOW(2*@0+(@1))
                 	LDI  R31,HIGH(2*@0+(@1))
                 	.ENDM
                 
                 	.MACRO __POINTD1FN
                 	LDI  R30,LOW(2*@0+(@1))
                 	LDI  R31,HIGH(2*@0+(@1))
                 	LDI  R22,BYTE3(2*@0+(@1))
                 	LDI  R23,BYTE4(2*@0+(@1))
                 	.ENDM
                 
                 	.MACRO __POINTB2MN
                 	LDI  R26,LOW(@0+(@1))
                 	.ENDM
                 
                 	.MACRO __POINTW2MN
                 	LDI  R26,LOW(@0+(@1))
                 	LDI  R27,HIGH(@0+(@1))
                 	.ENDM
                 
                 	.MACRO __POINTW2FN
                 	LDI  R26,LOW(2*@0+(@1))
                 	LDI  R27,HIGH(2*@0+(@1))
                 	.ENDM
                 
                 	.MACRO __POINTD2FN
                 	LDI  R26,LOW(2*@0+(@1))
                 	LDI  R27,HIGH(2*@0+(@1))
                 	LDI  R24,BYTE3(2*@0+(@1))
                 	LDI  R25,BYTE4(2*@0+(@1))
                 	.ENDM
                 
                 	.MACRO __POINTBRM
                 	LDI  R@0,LOW(@1)
                 	.ENDM
                 
                 	.MACRO __POINTWRM
                 	LDI  R@0,LOW(@2)
                 	LDI  R@1,HIGH(@2)
                 	.ENDM
                 
                 	.MACRO __POINTBRMN
                 	LDI  R@0,LOW(@1+(@2))
                 	.ENDM
                 
                 	.MACRO __POINTWRMN
                 	LDI  R@0,LOW(@2+(@3))
                 	LDI  R@1,HIGH(@2+(@3))
                 	.ENDM
                 
                 	.MACRO __POINTWRFN
                 	LDI  R@0,LOW(@2*2+(@3))
                 	LDI  R@1,HIGH(@2*2+(@3))
                 	.ENDM
                 
                 	.MACRO __GETD1N
                 	LDI  R30,LOW(@0)
                 	LDI  R31,HIGH(@0)
                 	LDI  R22,BYTE3(@0)
                 	LDI  R23,BYTE4(@0)
                 	.ENDM
                 
                 	.MACRO __GETD2N
                 	LDI  R26,LOW(@0)
                 	LDI  R27,HIGH(@0)
                 	LDI  R24,BYTE3(@0)
                 	LDI  R25,BYTE4(@0)
                 	.ENDM
                 
                 	.MACRO __GETB1MN
                 	LDS  R30,@0+(@1)
                 	.ENDM
                 
                 	.MACRO __GETB1HMN
                 	LDS  R31,@0+(@1)
                 	.ENDM
                 
                 	.MACRO __GETW1MN
                 	LDS  R30,@0+(@1)
                 	LDS  R31,@0+(@1)+1
                 	.ENDM
                 
                 	.MACRO __GETD1MN
                 	LDS  R30,@0+(@1)
                 	LDS  R31,@0+(@1)+1
                 	LDS  R22,@0+(@1)+2
                 	LDS  R23,@0+(@1)+3
                 	.ENDM
                 
                 	.MACRO __GETBRMN
                 	LDS  R@0,@1+(@2)
                 	.ENDM
                 
                 	.MACRO __GETWRMN
                 	LDS  R@0,@2+(@3)
                 	LDS  R@1,@2+(@3)+1
                 	.ENDM
                 
                 	.MACRO __GETWRZ
                 	LDD  R@0,Z+@2
                 	LDD  R@1,Z+@2+1
                 	.ENDM
                 
                 	.MACRO __GETD2Z
                 	LDD  R26,Z+@0
                 	LDD  R27,Z+@0+1
                 	LDD  R24,Z+@0+2
                 	LDD  R25,Z+@0+3
                 	.ENDM
                 
                 	.MACRO __GETB2MN
                 	LDS  R26,@0+(@1)
                 	.ENDM
                 
                 	.MACRO __GETW2MN
                 	LDS  R26,@0+(@1)
                 	LDS  R27,@0+(@1)+1
                 	.ENDM
                 
                 	.MACRO __GETD2MN
                 	LDS  R26,@0+(@1)
                 	LDS  R27,@0+(@1)+1
                 	LDS  R24,@0+(@1)+2
                 	LDS  R25,@0+(@1)+3
                 	.ENDM
                 
                 	.MACRO __PUTB1MN
                 	STS  @0+(@1),R30
                 	.ENDM
                 
                 	.MACRO __PUTW1MN
                 	STS  @0+(@1),R30
                 	STS  @0+(@1)+1,R31
                 	.ENDM
                 
                 	.MACRO __PUTD1MN
                 	STS  @0+(@1),R30
                 	STS  @0+(@1)+1,R31
                 	STS  @0+(@1)+2,R22
                 	STS  @0+(@1)+3,R23
                 	.ENDM
                 
                 	.MACRO __PUTB1EN
                 	LDI  R26,LOW(@0+(@1))
                 	LDI  R27,HIGH(@0+(@1))
                 	CALL __EEPROMWRB
                 	.ENDM
                 
                 	.MACRO __PUTW1EN
                 	LDI  R26,LOW(@0+(@1))
                 	LDI  R27,HIGH(@0+(@1))
                 	CALL __EEPROMWRW
                 	.ENDM
                 
                 	.MACRO __PUTD1EN
                 	LDI  R26,LOW(@0+(@1))
                 	LDI  R27,HIGH(@0+(@1))
                 	CALL __EEPROMWRD
                 	.ENDM
                 
                 	.MACRO __PUTBR0MN
                 	STS  @0+(@1),R0
                 	.ENDM
                 
                 	.MACRO __PUTBMRN
                 	STS  @0+(@1),R@2
                 	.ENDM
                 
                 	.MACRO __PUTWMRN
                 	STS  @0+(@1),R@2
                 	STS  @0+(@1)+1,R@3
                 	.ENDM
                 
                 	.MACRO __PUTBZR
                 	STD  Z+@1,R@0
                 	.ENDM
                 
                 	.MACRO __PUTWZR
                 	STD  Z+@2,R@0
                 	STD  Z+@2+1,R@1
                 	.ENDM
                 
                 	.MACRO __GETW1R
                 	MOV  R30,R@0
                 	MOV  R31,R@1
                 	.ENDM
                 
                 	.MACRO __GETW2R
                 	MOV  R26,R@0
                 	MOV  R27,R@1
                 	.ENDM
                 
                 	.MACRO __GETWRN
                 	LDI  R@0,LOW(@2)
                 	LDI  R@1,HIGH(@2)
                 	.ENDM
                 
                 	.MACRO __PUTW1R
                 	MOV  R@0,R30
                 	MOV  R@1,R31
                 	.ENDM
                 
                 	.MACRO __PUTW2R
                 	MOV  R@0,R26
                 	MOV  R@1,R27
                 	.ENDM
                 
                 	.MACRO __ADDWRN
                 	SUBI R@0,LOW(-@2)
                 	SBCI R@1,HIGH(-@2)
                 	.ENDM
                 
                 	.MACRO __ADDWRR
                 	ADD  R@0,R@2
                 	ADC  R@1,R@3
                 	.ENDM
                 
                 	.MACRO __SUBWRN
                 	SUBI R@0,LOW(@2)
                 	SBCI R@1,HIGH(@2)
                 	.ENDM
                 
                 	.MACRO __SUBWRR
                 	SUB  R@0,R@2
                 	SBC  R@1,R@3
                 	.ENDM
                 
                 	.MACRO __ANDWRN
                 	ANDI R@0,LOW(@2)
                 	ANDI R@1,HIGH(@2)
                 	.ENDM
                 
                 	.MACRO __ANDWRR
                 	AND  R@0,R@2
                 	AND  R@1,R@3
                 	.ENDM
                 
                 	.MACRO __ORWRN
                 	ORI  R@0,LOW(@2)
                 	ORI  R@1,HIGH(@2)
                 	.ENDM
                 
                 	.MACRO __ORWRR
                 	OR   R@0,R@2
                 	OR   R@1,R@3
                 	.ENDM
                 
                 	.MACRO __EORWRR
                 	EOR  R@0,R@2
                 	EOR  R@1,R@3
                 	.ENDM
                 
                 	.MACRO __GETWRS
                 	LDD  R@0,Y+@2
                 	LDD  R@1,Y+@2+1
                 	.ENDM
                 
                 	.MACRO __PUTBSR
                 	STD  Y+@1,R@0
                 	.ENDM
                 
                 	.MACRO __PUTWSR
                 	STD  Y+@2,R@0
                 	STD  Y+@2+1,R@1
                 	.ENDM
                 
                 	.MACRO __MOVEWRR
                 	MOV  R@0,R@2
                 	MOV  R@1,R@3
                 	.ENDM
                 
                 	.MACRO __INWR
                 	IN   R@0,@2
                 	IN   R@1,@2+1
                 	.ENDM
                 
                 	.MACRO __OUTWR
                 	OUT  @2+1,R@1
                 	OUT  @2,R@0
                 	.ENDM
                 
                 	.MACRO __CALL1MN
                 	LDS  R30,@0+(@1)
                 	LDS  R31,@0+(@1)+1
                 	ICALL
                 	.ENDM
                 
                 	.MACRO __CALL1FN
                 	LDI  R30,LOW(2*@0+(@1))
                 	LDI  R31,HIGH(2*@0+(@1))
                 	CALL __GETW1PF
                 	ICALL
                 	.ENDM
                 
                 	.MACRO __CALL2EN
                 	PUSH R26
                 	PUSH R27
                 	LDI  R26,LOW(@0+(@1))
                 	LDI  R27,HIGH(@0+(@1))
                 	CALL __EEPROMRDW
                 	POP  R27
                 	POP  R26
                 	ICALL
                 	.ENDM
                 
                 	.MACRO __CALL2EX
                 	SUBI R26,LOW(-@0)
                 	SBCI R27,HIGH(-@0)
                 	CALL __EEPROMRDD
                 	ICALL
                 	.ENDM
                 
                 	.MACRO __GETW1STACK
                 	IN   R30,SPL
                 	IN   R31,SPH
                 	ADIW R30,@0+1
                 	LD   R0,Z+
                 	LD   R31,Z
                 	MOV  R30,R0
                 	.ENDM
                 
                 	.MACRO __GETD1STACK
                 	IN   R30,SPL
                 	IN   R31,SPH
                 	ADIW R30,@0+1
                 	LD   R0,Z+
                 	LD   R1,Z+
                 	LD   R22,Z
                 	MOVW R30,R0
                 	.ENDM
                 
                 	.MACRO __NBST
                 	BST  R@0,@1
                 	IN   R30,SREG
                 	LDI  R31,0x40
                 	EOR  R30,R31
                 	OUT  SREG,R30
                 	.ENDM
                 
                 
                 	.MACRO __PUTB1SN
                 	LDD  R26,Y+@0
                 	LDD  R27,Y+@0+1
                 	SUBI R26,LOW(-@1)
                 	SBCI R27,HIGH(-@1)
                 	ST   X,R30
                 	.ENDM
                 
                 	.MACRO __PUTW1SN
                 	LDD  R26,Y+@0
                 	LDD  R27,Y+@0+1
                 	SUBI R26,LOW(-@1)
                 	SBCI R27,HIGH(-@1)
                 	ST   X+,R30
                 	ST   X,R31
                 	.ENDM
                 
                 	.MACRO __PUTD1SN
                 	LDD  R26,Y+@0
                 	LDD  R27,Y+@0+1
                 	SUBI R26,LOW(-@1)
                 	SBCI R27,HIGH(-@1)
                 	CALL __PUTDP1
                 	.ENDM
                 
                 	.MACRO __PUTB1SNS
                 	LDD  R26,Y+@0
                 	LDD  R27,Y+@0+1
                 	ADIW R26,@1
                 	ST   X,R30
                 	.ENDM
                 
                 	.MACRO __PUTW1SNS
                 	LDD  R26,Y+@0
                 	LDD  R27,Y+@0+1
                 	ADIW R26,@1
                 	ST   X+,R30
                 	ST   X,R31
                 	.ENDM
                 
                 	.MACRO __PUTD1SNS
                 	LDD  R26,Y+@0
                 	LDD  R27,Y+@0+1
                 	ADIW R26,@1
                 	CALL __PUTDP1
                 	.ENDM
                 
                 	.MACRO __PUTB1PMN
                 	LDS  R26,@0
                 	LDS  R27,@0+1
                 	SUBI R26,LOW(-@1)
                 	SBCI R27,HIGH(-@1)
                 	ST   X,R30
                 	.ENDM
                 
                 	.MACRO __PUTW1PMN
                 	LDS  R26,@0
                 	LDS  R27,@0+1
                 	SUBI R26,LOW(-@1)
                 	SBCI R27,HIGH(-@1)
                 	ST   X+,R30
                 	ST   X,R31
                 	.ENDM
                 
                 	.MACRO __PUTD1PMN
                 	LDS  R26,@0
                 	LDS  R27,@0+1
                 	SUBI R26,LOW(-@1)
                 	SBCI R27,HIGH(-@1)
                 	CALL __PUTDP1
                 	.ENDM
                 
                 	.MACRO __PUTB1PMNS
                 	LDS  R26,@0
                 	LDS  R27,@0+1
                 	ADIW R26,@1
                 	ST   X,R30
                 	.ENDM
                 
                 	.MACRO __PUTW1PMNS
                 	LDS  R26,@0
                 	LDS  R27,@0+1
                 	ADIW R26,@1
                 	ST   X+,R30
                 	ST   X,R31
                 	.ENDM
                 
                 	.MACRO __PUTD1PMNS
                 	LDS  R26,@0
                 	LDS  R27,@0+1
                 	ADIW R26,@1
                 	CALL __PUTDP1
                 	.ENDM
                 
                 	.MACRO __PUTB1RN
                 	MOVW R26,R@0
                 	SUBI R26,LOW(-@1)
                 	SBCI R27,HIGH(-@1)
                 	ST   X,R30
                 	.ENDM
                 
                 	.MACRO __PUTW1RN
                 	MOVW R26,R@0
                 	SUBI R26,LOW(-@1)
                 	SBCI R27,HIGH(-@1)
                 	ST   X+,R30
                 	ST   X,R31
                 	.ENDM
                 
                 	.MACRO __PUTD1RN
                 	MOVW R26,R@0
                 	SUBI R26,LOW(-@1)
                 	SBCI R27,HIGH(-@1)
                 	CALL __PUTDP1
                 	.ENDM
                 
                 	.MACRO __PUTB1RNS
                 	MOVW R26,R@0
                 	ADIW R26,@1
                 	ST   X,R30
                 	.ENDM
                 
                 	.MACRO __PUTW1RNS
                 	MOVW R26,R@0
                 	ADIW R26,@1
                 	ST   X+,R30
                 	ST   X,R31
                 	.ENDM
                 
                 	.MACRO __PUTD1RNS
                 	MOVW R26,R@0
                 	ADIW R26,@1
                 	CALL __PUTDP1
                 	.ENDM
                 
                 	.MACRO __PUTB1RON
                 	MOV  R26,R@0
                 	MOV  R27,R@1
                 	SUBI R26,LOW(-@2)
                 	SBCI R27,HIGH(-@2)
                 	ST   X,R30
                 	.ENDM
                 
                 	.MACRO __PUTW1RON
                 	MOV  R26,R@0
                 	MOV  R27,R@1
                 	SUBI R26,LOW(-@2)
                 	SBCI R27,HIGH(-@2)
                 	ST   X+,R30
                 	ST   X,R31
                 	.ENDM
                 
                 	.MACRO __PUTD1RON
                 	MOV  R26,R@0
                 	MOV  R27,R@1
                 	SUBI R26,LOW(-@2)
                 	SBCI R27,HIGH(-@2)
                 	CALL __PUTDP1
                 	.ENDM
                 
                 	.MACRO __PUTB1RONS
                 	MOV  R26,R@0
                 	MOV  R27,R@1
                 	ADIW R26,@2
                 	ST   X,R30
                 	.ENDM
                 
                 	.MACRO __PUTW1RONS
                 	MOV  R26,R@0
                 	MOV  R27,R@1
                 	ADIW R26,@2
                 	ST   X+,R30
                 	ST   X,R31
                 	.ENDM
                 
                 	.MACRO __PUTD1RONS
                 	MOV  R26,R@0
                 	MOV  R27,R@1
                 	ADIW R26,@2
                 	CALL __PUTDP1
                 	.ENDM
                 
                 
                 	.MACRO __GETB1SX
                 	MOVW R30,R28
                 	SUBI R30,LOW(-@0)
                 	SBCI R31,HIGH(-@0)
                 	LD   R30,Z
                 	.ENDM
                 
                 	.MACRO __GETB1HSX
                 	MOVW R30,R28
                 	SUBI R30,LOW(-@0)
                 	SBCI R31,HIGH(-@0)
                 	LD   R31,Z
                 	.ENDM
                 
                 	.MACRO __GETW1SX
                 	MOVW R30,R28
                 	SUBI R30,LOW(-@0)
                 	SBCI R31,HIGH(-@0)
                 	LD   R0,Z+
                 	LD   R31,Z
                 	MOV  R30,R0
                 	.ENDM
                 
                 	.MACRO __GETD1SX
                 	MOVW R30,R28
                 	SUBI R30,LOW(-@0)
                 	SBCI R31,HIGH(-@0)
                 	LD   R0,Z+
                 	LD   R1,Z+
                 	LD   R22,Z+
                 	LD   R23,Z
                 	MOVW R30,R0
                 	.ENDM
                 
                 	.MACRO __GETB2SX
                 	MOVW R26,R28
                 	SUBI R26,LOW(-@0)
                 	SBCI R27,HIGH(-@0)
                 	LD   R26,X
                 	.ENDM
                 
                 	.MACRO __GETW2SX
                 	MOVW R26,R28
                 	SUBI R26,LOW(-@0)
                 	SBCI R27,HIGH(-@0)
                 	LD   R0,X+
                 	LD   R27,X
                 	MOV  R26,R0
                 	.ENDM
                 
                 	.MACRO __GETD2SX
                 	MOVW R26,R28
                 	SUBI R26,LOW(-@0)
                 	SBCI R27,HIGH(-@0)
                 	LD   R0,X+
                 	LD   R1,X+
                 	LD   R24,X+
                 	LD   R25,X
                 	MOVW R26,R0
                 	.ENDM
                 
                 	.MACRO __GETBRSX
                 	MOVW R30,R28
                 	SUBI R30,LOW(-@1)
                 	SBCI R31,HIGH(-@1)
                 	LD   R@0,Z
                 	.ENDM
                 
                 	.MACRO __GETWRSX
                 	MOVW R30,R28
                 	SUBI R30,LOW(-@2)
                 	SBCI R31,HIGH(-@2)
                 	LD   R@0,Z+
                 	LD   R@1,Z
                 	.ENDM
                 
                 	.MACRO __GETBRSX2
                 	MOVW R26,R28
                 	SUBI R26,LOW(-@1)
                 	SBCI R27,HIGH(-@1)
                 	LD   R@0,X
                 	.ENDM
                 
                 	.MACRO __GETWRSX2
                 	MOVW R26,R28
                 	SUBI R26,LOW(-@2)
                 	SBCI R27,HIGH(-@2)
                 	LD   R@0,X+
                 	LD   R@1,X
                 	.ENDM
                 
                 	.MACRO __LSLW8SX
                 	MOVW R30,R28
                 	SUBI R30,LOW(-@0)
                 	SBCI R31,HIGH(-@0)
                 	LD   R31,Z
                 	CLR  R30
                 	.ENDM
                 
                 	.MACRO __PUTB1SX
                 	MOVW R26,R28
                 	SUBI R26,LOW(-@0)
                 	SBCI R27,HIGH(-@0)
                 	ST   X,R30
                 	.ENDM
                 
                 	.MACRO __PUTW1SX
                 	MOVW R26,R28
                 	SUBI R26,LOW(-@0)
                 	SBCI R27,HIGH(-@0)
                 	ST   X+,R30
                 	ST   X,R31
                 	.ENDM
                 
                 	.MACRO __PUTD1SX
                 	MOVW R26,R28
                 	SUBI R26,LOW(-@0)
                 	SBCI R27,HIGH(-@0)
                 	ST   X+,R30
                 	ST   X+,R31
                 	ST   X+,R22
                 	ST   X,R23
                 	.ENDM
                 
                 	.MACRO __CLRW1SX
                 	MOVW R26,R28
                 	SUBI R26,LOW(-@0)
                 	SBCI R27,HIGH(-@0)
                 	ST   X+,R30
                 	ST   X,R30
                 	.ENDM
                 
                 	.MACRO __CLRD1SX
                 	MOVW R26,R28
                 	SUBI R26,LOW(-@0)
                 	SBCI R27,HIGH(-@0)
                 	ST   X+,R30
                 	ST   X+,R30
                 	ST   X+,R30
                 	ST   X,R30
                 	.ENDM
                 
                 	.MACRO __PUTB2SX
                 	MOVW R30,R28
                 	SUBI R30,LOW(-@0)
                 	SBCI R31,HIGH(-@0)
                 	ST   Z,R26
                 	.ENDM
                 
                 	.MACRO __PUTW2SX
                 	MOVW R30,R28
                 	SUBI R30,LOW(-@0)
                 	SBCI R31,HIGH(-@0)
                 	ST   Z+,R26
                 	ST   Z,R27
                 	.ENDM
                 
                 	.MACRO __PUTD2SX
                 	MOVW R30,R28
                 	SUBI R30,LOW(-@0)
                 	SBCI R31,HIGH(-@0)
                 	ST   Z+,R26
                 	ST   Z+,R27
                 	ST   Z+,R24
                 	ST   Z,R25
                 	.ENDM
                 
                 	.MACRO __PUTBSRX
                 	MOVW R30,R28
                 	SUBI R30,LOW(-@1)
                 	SBCI R31,HIGH(-@1)
                 	ST   Z,R@0
                 	.ENDM
                 
                 	.MACRO __PUTWSRX
                 	MOVW R30,R28
                 	SUBI R30,LOW(-@2)
                 	SBCI R31,HIGH(-@2)
                 	ST   Z+,R@0
                 	ST   Z,R@1
                 	.ENDM
                 
                 	.MACRO __PUTB1SNX
                 	MOVW R26,R28
                 	SUBI R26,LOW(-@0)
                 	SBCI R27,HIGH(-@0)
                 	LD   R0,X+
                 	LD   R27,X
                 	MOV  R26,R0
                 	SUBI R26,LOW(-@1)
                 	SBCI R27,HIGH(-@1)
                 	ST   X,R30
                 	.ENDM
                 
                 	.MACRO __PUTW1SNX
                 	MOVW R26,R28
                 	SUBI R26,LOW(-@0)
                 	SBCI R27,HIGH(-@0)
                 	LD   R0,X+
                 	LD   R27,X
                 	MOV  R26,R0
                 	SUBI R26,LOW(-@1)
                 	SBCI R27,HIGH(-@1)
                 	ST   X+,R30
                 	ST   X,R31
                 	.ENDM
                 
                 	.MACRO __PUTD1SNX
                 	MOVW R26,R28
                 	SUBI R26,LOW(-@0)
                 	SBCI R27,HIGH(-@0)
                 	LD   R0,X+
                 	LD   R27,X
                 	MOV  R26,R0
                 	SUBI R26,LOW(-@1)
                 	SBCI R27,HIGH(-@1)
                 	ST   X+,R30
                 	ST   X+,R31
                 	ST   X+,R22
                 	ST   X,R23
                 	.ENDM
                 
                 	.MACRO __MULBRR
                 	MULS R@0,R@1
                 	MOVW R30,R0
                 	.ENDM
                 
                 	.MACRO __MULBRRU
                 	MUL  R@0,R@1
                 	MOVW R30,R0
                 	.ENDM
                 
                 	.MACRO __MULBRR0
                 	MULS R@0,R@1
                 	.ENDM
                 
                 	.MACRO __MULBRRU0
                 	MUL  R@0,R@1
                 	.ENDM
                 
                 	.MACRO __MULBNWRU
                 	LDI  R26,@2
                 	MUL  R26,R@0
                 	MOVW R30,R0
                 	MUL  R26,R@1
                 	ADD  R31,R0
                 	.ENDM
                 
                 ;NAME DEFINITIONS FOR GLOBAL VARIABLES ALLOCATED TO REGISTERS
                 	.DEF _i=R4
                 	.DEF _i_msb=R5
                 	.DEF _j=R6
                 	.DEF _j_msb=R7
                 	.DEF _cnt1=R8
                 	.DEF _cnt1_msb=R9
                 	.DEF _x=R10
                 	.DEF _x_msb=R11
                 	.DEF _y=R12
                 	.DEF _y_msb=R13
                 
                 	.CSEG
                 	.ORG 0x00
                 
                 ;START OF CODE MARKER
                 __START_OF_CODE:
                 
                 ;INTERRUPT VECTORS
000000 940c 0165 	JMP  __RESET
000002 940c 0000 	JMP  0x00
000004 940c 0000 	JMP  0x00
000006 940c 0000 	JMP  0x00
000008 940c 0000 	JMP  0x00
00000a 940c 0000 	JMP  0x00
00000c 940c 0000 	JMP  0x00
00000e 940c 0000 	JMP  0x00
000010 940c 0000 	JMP  0x00
000012 940c 0000 	JMP  0x00
000014 940c 0000 	JMP  0x00
000016 940c 0000 	JMP  0x00
000018 940c 0000 	JMP  0x00
00001a 940c 0000 	JMP  0x00
00001c 940c 0000 	JMP  0x00
00001e 940c 0000 	JMP  0x00
000020 940c 0000 	JMP  0x00
000022 940c 0000 	JMP  0x00
000024 940c 0000 	JMP  0x00
000026 940c 0000 	JMP  0x00
000028 940c 0000 	JMP  0x00
                 
                 _font5x7:
00002a 0705
00002b 6020
00002c 0000
00002d 0000      	.DB  0x5,0x7,0x20,0x60,0x0,0x0,0x0,0x0
00002e 0000
00002f 5f00
000030 0000
000031 0700      	.DB  0x0,0x0,0x0,0x5F,0x0,0x0,0x0,0x7
000032 0700
000033 1400
000034 147f
000035 147f      	.DB  0x0,0x7,0x0,0x14,0x7F,0x14,0x7F,0x14
000036 2a24
000037 2a7f
000038 2312
000039 0813      	.DB  0x24,0x2A,0x7F,0x2A,0x12,0x23,0x13,0x8
00003a 6264
00003b 4936
00003c 2255
00003d 0050      	.DB  0x64,0x62,0x36,0x49,0x55,0x22,0x50,0x0
00003e 0305
00003f 0000
000040 1c00
000041 4122      	.DB  0x5,0x3,0x0,0x0,0x0,0x1C,0x22,0x41
000042 0000
000043 2241
000044 001c
000045 2a08      	.DB  0x0,0x0,0x41,0x22,0x1C,0x0,0x8,0x2A
000046 2a1c
000047 0808
000048 3e08
000049 0808      	.DB  0x1C,0x2A,0x8,0x8,0x8,0x3E,0x8,0x8
00004a 5000
00004b 0030
00004c 0800
00004d 0808      	.DB  0x0,0x50,0x30,0x0,0x0,0x8,0x8,0x8
00004e 0808
00004f 3000
000050 0030
000051 2000      	.DB  0x8,0x8,0x0,0x30,0x30,0x0,0x0,0x20
000052 0810
000053 0204
000054 513e
000055 4549      	.DB  0x10,0x8,0x4,0x2,0x3E,0x51,0x49,0x45
000056 003e
000057 7f42
000058 0040
000059 6142      	.DB  0x3E,0x0,0x42,0x7F,0x40,0x0,0x42,0x61
00005a 4951
00005b 2146
00005c 4541
00005d 314b      	.DB  0x51,0x49,0x46,0x21,0x41,0x45,0x4B,0x31
00005e 1418
00005f 7f12
000060 2710
000061 4545      	.DB  0x18,0x14,0x12,0x7F,0x10,0x27,0x45,0x45
000062 3945
000063 4a3c
000064 4949
000065 0130      	.DB  0x45,0x39,0x3C,0x4A,0x49,0x49,0x30,0x1
000066 0971
000067 0305
000068 4936
000069 4949      	.DB  0x71,0x9,0x5,0x3,0x36,0x49,0x49,0x49
00006a 0636
00006b 4949
00006c 1e29
00006d 3600      	.DB  0x36,0x6,0x49,0x49,0x29,0x1E,0x0,0x36
00006e 0036
00006f 0000
000070 3656
000071 0000      	.DB  0x36,0x0,0x0,0x0,0x56,0x36,0x0,0x0
000072 0800
000073 2214
000074 1441
000075 1414      	.DB  0x0,0x8,0x14,0x22,0x41,0x14,0x14,0x14
000076 1414
000077 2241
000078 0814
000079 0200      	.DB  0x14,0x14,0x41,0x22,0x14,0x8,0x0,0x2
00007a 5101
00007b 0609
00007c 4932
00007d 4179      	.DB  0x1,0x51,0x9,0x6,0x32,0x49,0x79,0x41
00007e 7e3e
00007f 1111
000080 7e11
000081 497f      	.DB  0x3E,0x7E,0x11,0x11,0x11,0x7E,0x7F,0x49
000082 4949
000083 3e36
000084 4141
000085 2241      	.DB  0x49,0x49,0x36,0x3E,0x41,0x41,0x41,0x22
000086 417f
000087 2241
000088 7f1c
000089 4949      	.DB  0x7F,0x41,0x41,0x22,0x1C,0x7F,0x49,0x49
00008a 4149
00008b 097f
00008c 0109
00008d 3e01      	.DB  0x49,0x41,0x7F,0x9,0x9,0x1,0x1,0x3E
00008e 4141
00008f 3251
000090 087f
000091 0808      	.DB  0x41,0x41,0x51,0x32,0x7F,0x8,0x8,0x8
000092 007f
000093 7f41
000094 0041
000095 4020      	.DB  0x7F,0x0,0x41,0x7F,0x41,0x0,0x20,0x40
000096 3f41
000097 7f01
000098 1408
000099 4122      	.DB  0x41,0x3F,0x1,0x7F,0x8,0x14,0x22,0x41
00009a 407f
00009b 4040
00009c 7f40
00009d 0402      	.DB  0x7F,0x40,0x40,0x40,0x40,0x7F,0x2,0x4
00009e 7f02
00009f 047f
0000a0 1008
0000a1 3e7f      	.DB  0x2,0x7F,0x7F,0x4,0x8,0x10,0x7F,0x3E
0000a2 4141
0000a3 3e41
0000a4 097f
0000a5 0909      	.DB  0x41,0x41,0x41,0x3E,0x7F,0x9,0x9,0x9
0000a6 3e06
0000a7 5141
0000a8 5e21
0000a9 097f      	.DB  0x6,0x3E,0x41,0x51,0x21,0x5E,0x7F,0x9
0000aa 2919
0000ab 4646
0000ac 4949
0000ad 3149      	.DB  0x19,0x29,0x46,0x46,0x49,0x49,0x49,0x31
0000ae 0101
0000af 017f
0000b0 3f01
0000b1 4040      	.DB  0x1,0x1,0x7F,0x1,0x1,0x3F,0x40,0x40
0000b2 3f40
0000b3 201f
0000b4 2040
0000b5 7f1f      	.DB  0x40,0x3F,0x1F,0x20,0x40,0x20,0x1F,0x7F
0000b6 1820
0000b7 7f20
0000b8 1463
0000b9 1408      	.DB  0x20,0x18,0x20,0x7F,0x63,0x14,0x8,0x14
0000ba 0363
0000bb 7804
0000bc 0304
0000bd 5161      	.DB  0x63,0x3,0x4,0x78,0x4,0x3,0x61,0x51
0000be 4549
0000bf 0043
0000c0 7f00
0000c1 4141      	.DB  0x49,0x45,0x43,0x0,0x0,0x7F,0x41,0x41
0000c2 0402
0000c3 1008
0000c4 4120
0000c5 7f41      	.DB  0x2,0x4,0x8,0x10,0x20,0x41,0x41,0x7F
0000c6 0000
0000c7 0204
0000c8 0201
0000c9 4004      	.DB  0x0,0x0,0x4,0x2,0x1,0x2,0x4,0x40
0000ca 4040
0000cb 4040
0000cc 0100
0000cd 0402      	.DB  0x40,0x40,0x40,0x40,0x0,0x1,0x2,0x4
0000ce 2000
0000cf 5454
0000d0 7854
0000d1 487f      	.DB  0x0,0x20,0x54,0x54,0x54,0x78,0x7F,0x48
0000d2 4444
0000d3 3838
0000d4 4444
0000d5 2044      	.DB  0x44,0x44,0x38,0x38,0x44,0x44,0x44,0x20
0000d6 4438
0000d7 4844
0000d8 387f
0000d9 5454      	.DB  0x38,0x44,0x44,0x48,0x7F,0x38,0x54,0x54
0000da 1854
0000db 7e08
0000dc 0109
0000dd 0802      	.DB  0x54,0x18,0x8,0x7E,0x9,0x1,0x2,0x8
0000de 5414
0000df 3c54
0000e0 087f
0000e1 0404      	.DB  0x14,0x54,0x54,0x3C,0x7F,0x8,0x4,0x4
0000e2 0078
0000e3 7d44
0000e4 0040
0000e5 4020      	.DB  0x78,0x0,0x44,0x7D,0x40,0x0,0x20,0x40
0000e6 3d44
0000e7 0000
0000e8 107f
0000e9 4428      	.DB  0x44,0x3D,0x0,0x0,0x7F,0x10,0x28,0x44
0000ea 4100
0000eb 407f
0000ec 7c00
0000ed 1804      	.DB  0x0,0x41,0x7F,0x40,0x0,0x7C,0x4,0x18
0000ee 7804
0000ef 087c
0000f0 0404
0000f1 3878      	.DB  0x4,0x78,0x7C,0x8,0x4,0x4,0x78,0x38
0000f2 4444
0000f3 3844
0000f4 147c
0000f5 1414      	.DB  0x44,0x44,0x44,0x38,0x7C,0x14,0x14,0x14
0000f6 0808
0000f7 1414
0000f8 7c18
0000f9 087c      	.DB  0x8,0x8,0x14,0x14,0x18,0x7C,0x7C,0x8
0000fa 0404
0000fb 4808
0000fc 5454
0000fd 2054      	.DB  0x4,0x4,0x8,0x48,0x54,0x54,0x54,0x20
0000fe 3f04
0000ff 4044
000100 3c20
000101 4040      	.DB  0x4,0x3F,0x44,0x40,0x20,0x3C,0x40,0x40
000102 7c20
000103 201c
000104 2040
000105 3c1c      	.DB  0x20,0x7C,0x1C,0x20,0x40,0x20,0x1C,0x3C
000106 3040
000107 3c40
000108 2844
000109 2810      	.DB  0x40,0x30,0x40,0x3C,0x44,0x28,0x10,0x28
00010a 0c44
00010b 5050
00010c 3c50
00010d 6444      	.DB  0x44,0xC,0x50,0x50,0x50,0x3C,0x44,0x64
00010e 4c54
00010f 0044
000110 3608
000111 0041      	.DB  0x54,0x4C,0x44,0x0,0x8,0x36,0x41,0x0
000112 0000
000113 007f
000114 0000
000115 3641      	.DB  0x0,0x0,0x7F,0x0,0x0,0x0,0x41,0x36
000116 0008
000117 0102
000118 0402
000119 7f02      	.DB  0x8,0x0,0x2,0x1,0x2,0x4,0x2,0x7F
00011a 4141
00011b 7f41      	.DB  0x41,0x41,0x41,0x7F
                 __glcd_mask:
00011c 0100
00011d 0703
00011e 1f0f
00011f 7f3f      	.DB  0x0,0x1,0x3,0x7,0xF,0x1F,0x3F,0x7F
D:\project\code visionAVR\nokia 5110 test\Debug\List\t1.asm(1192): warning: .cseg .db misalignment - padding zero byte
000120 00ff      	.DB  0xFF
                 
                 ;GLOBAL REGISTER VARIABLES INITIALIZATION
                 __REG_VARS:
000121 0000
000122 0032      	.DB  0x0,0x0,0x32,0x0
000123 0014      	.DB  0x14,0x0
                 
                 _0x3:
D:\project\code visionAVR\nokia 5110 test\Debug\List\t1.asm(1200): warning: .cseg .db misalignment - padding zero byte
000124 0002      	.DB  0x2
                 _0x4:
D:\project\code visionAVR\nokia 5110 test\Debug\List\t1.asm(1202): warning: .cseg .db misalignment - padding zero byte
000125 0003      	.DB  0x3
                 _0x5:
D:\project\code visionAVR\nokia 5110 test\Debug\List\t1.asm(1204): warning: .cseg .db misalignment - padding zero byte
000126 0003      	.DB  0x3
                 _0x6:
D:\project\code visionAVR\nokia 5110 test\Debug\List\t1.asm(1206): warning: .cseg .db misalignment - padding zero byte
000127 0002      	.DB  0x2
                 _0x7:
D:\project\code visionAVR\nokia 5110 test\Debug\List\t1.asm(1208): warning: .cseg .db misalignment - padding zero byte
000128 000a      	.DB  0xA
                 _0x8:
D:\project\code visionAVR\nokia 5110 test\Debug\List\t1.asm(1210): warning: .cseg .db misalignment - padding zero byte
000129 000a      	.DB  0xA
                 _0x9:
00012a cbe6
00012b 4096      	.DB  0xE6,0xCB,0x96,0x40
                 _0xA:
00012c cbe6
00012d 4096      	.DB  0xE6,0xCB,0x96,0x40
                 _0xB:
00012e cbe6
00012f 4096      	.DB  0xE6,0xCB,0x96,0x40
                 _0x0:
000130 6944
000131 7473
000132 6e61
000133 6563      	.DB  0x44,0x69,0x73,0x74,0x61,0x6E,0x63,0x65
000134 003a
000135 6d63
D:\project\code visionAVR\nokia 5110 test\Debug\List\t1.asm(1219): warning: .cseg .db misalignment - padding zero byte
000136 0000      	.DB  0x3A,0x0,0x63,0x6D,0x0
                 _0x2080060:
D:\project\code visionAVR\nokia 5110 test\Debug\List\t1.asm(1221): warning: .cseg .db misalignment - padding zero byte
000137 0001      	.DB  0x1
                 _0x2080000:
000138 4e2d
000139 4e41
00013a 4900
00013b 464e      	.DB  0x2D,0x4E,0x41,0x4E,0x0,0x49,0x4E,0x46
D:\project\code visionAVR\nokia 5110 test\Debug\List\t1.asm(1224): warning: .cseg .db misalignment - padding zero byte
00013c 0000      	.DB  0x0
                 
                 __GLOBAL_INI_TBL:
00013d 0006      	.DW  0x06
00013e 0008      	.DW  0x08
00013f 0242      	.DW  __REG_VARS*2
                 
000140 0001      	.DW  0x01
000141 018a      	.DW  _cntx
000142 0248      	.DW  _0x3*2
                 
000143 0001      	.DW  0x01
000144 018c      	.DW  _cnty
000145 024a      	.DW  _0x4*2
                 
000146 0001      	.DW  0x01
000147 018e      	.DW  _cntx1
000148 024c      	.DW  _0x5*2
                 
000149 0001      	.DW  0x01
00014a 0190      	.DW  _cnty1
00014b 024e      	.DW  _0x6*2
                 
00014c 0001      	.DW  0x01
00014d 01a0      	.DW  _x4
00014e 0250      	.DW  _0x7*2
                 
00014f 0001      	.DW  0x01
000150 01a2      	.DW  _y4
000151 0252      	.DW  _0x8*2
                 
000152 0004      	.DW  0x04
000153 01aa      	.DW  _cnt3
000154 0254      	.DW  _0x9*2
                 
000155 0004      	.DW  0x04
000156 01ae      	.DW  _cnt4
000157 0258      	.DW  _0xA*2
                 
000158 0004      	.DW  0x04
000159 01b2      	.DW  _cnt5
00015a 025c      	.DW  _0xB*2
                 
00015b 000a      	.DW  0x0A
00015c 0160      	.DW  _0x2C
00015d 0260      	.DW  _0x0*2
                 
00015e 0003      	.DW  0x03
00015f 016a      	.DW  _0x2C+10
000160 026a      	.DW  _0x0*2+10
                 
000161 0001      	.DW  0x01
000162 03b0      	.DW  __seed_G104
000163 026e      	.DW  _0x2080060*2
                 
                 _0xFFFFFFFF:
000164 0000      	.DW  0
                 
                 #define __GLOBAL_INI_TBL_PRESENT 1
                 
                 __RESET:
000165 94f8      	CLI
000166 27ee      	CLR  R30
000167 bbec      	OUT  EECR,R30
                 
                 ;INTERRUPT VECTORS ARE PLACED
                 ;AT THE START OF FLASH
000168 e0f1      	LDI  R31,1
000169 bffb      	OUT  GICR,R31
00016a bfeb      	OUT  GICR,R30
00016b bfe5      	OUT  MCUCR,R30
                 
                 ;CLEAR R2-R14
00016c e08d      	LDI  R24,(14-2)+1
00016d e0a2      	LDI  R26,2
00016e 27bb      	CLR  R27
                 __CLEAR_REG:
00016f 93ed      	ST   X+,R30
000170 958a      	DEC  R24
000171 f7e9      	BRNE __CLEAR_REG
                 
                 ;CLEAR SRAM
000172 e080      	LDI  R24,LOW(__CLEAR_SRAM_SIZE)
000173 e094      	LDI  R25,HIGH(__CLEAR_SRAM_SIZE)
000174 e6a0      	LDI  R26,__SRAM_START
                 __CLEAR_SRAM:
000175 93ed      	ST   X+,R30
000176 9701      	SBIW R24,1
000177 f7e9      	BRNE __CLEAR_SRAM
                 
                 ;GLOBAL VARIABLES INITIALIZATION
000178 e7ea      	LDI  R30,LOW(__GLOBAL_INI_TBL*2)
000179 e0f2      	LDI  R31,HIGH(__GLOBAL_INI_TBL*2)
                 __GLOBAL_INI_NEXT:
00017a 9185      	LPM  R24,Z+
00017b 9195      	LPM  R25,Z+
00017c 9700      	SBIW R24,0
00017d f061      	BREQ __GLOBAL_INI_END
00017e 91a5      	LPM  R26,Z+
00017f 91b5      	LPM  R27,Z+
000180 9005      	LPM  R0,Z+
000181 9015      	LPM  R1,Z+
000182 01bf      	MOVW R22,R30
000183 01f0      	MOVW R30,R0
                 __GLOBAL_INI_LOOP:
000184 9005      	LPM  R0,Z+
000185 920d      	ST   X+,R0
000186 9701      	SBIW R24,1
000187 f7e1      	BRNE __GLOBAL_INI_LOOP
000188 01fb      	MOVW R30,R22
000189 cff0      	RJMP __GLOBAL_INI_NEXT
                 __GLOBAL_INI_END:
                 
                 ;HARDWARE STACK POINTER INITIALIZATION
00018a e5ef      	LDI  R30,LOW(__SRAM_END-__HEAP_SIZE)
00018b bfed      	OUT  SPL,R30
00018c e0e4      	LDI  R30,HIGH(__SRAM_END-__HEAP_SIZE)
00018d bfee      	OUT  SPH,R30
                 
                 ;DATA STACK POINTER INITIALIZATION
00018e e6c0      	LDI  R28,LOW(__SRAM_START+__DSTACK_SIZE)
00018f e0d1      	LDI  R29,HIGH(__SRAM_START+__DSTACK_SIZE)
                 
000190 940c 0192 	JMP  _main
                 
                 	.ESEG
                 	.ORG 0
                 
                 	.DSEG
                 	.ORG 0x160
                 
                 	.CSEG
                 ;/*******************************************************
                 ;This program was created by the
                 ;CodeWizardAVR V3.12 Advanced
                 ;Automatic Program Generator
                 ; Copyright 1998-2014 Pavel Haiduc, HP InfoTech s.r.l.
                 ;http://www.hpinfotech.com
                 ;
                 ;Project :
                 ;Version :
                 ;Date    : 1/7/2017
                 ;Author  :
                 ;Company :
                 ;Comments:
                 ;
                 ;
                 ;Chip type               : ATmega16A
                 ;Program type            : Application
                 ;AVR Core Clock frequency: 8.000000 MHz
                 ;Memory model            : Small
                 ;External RAM size       : 0
                 ;Data Stack size         : 256
                 ;*******************************************************/
                 ;
                 ;#include <mega16a.h>
                 	#ifndef __SLEEP_DEFINED__
                 	#define __SLEEP_DEFINED__
                 	.EQU __se_bit=0x40
                 	.EQU __sm_mask=0xB0
                 	.EQU __sm_powerdown=0x20
                 	.EQU __sm_powersave=0x30
                 	.EQU __sm_standby=0xA0
                 	.EQU __sm_ext_standby=0xB0
                 	.EQU __sm_adc_noise_red=0x10
                 	.SET power_ctrl_reg=mcucr
                 	#endif
                 ;#include <delay.h>
                 ;#include <math.h>
                 ;// Graphic Display functions
                 ;#include <glcd.h>
                 ;
                 ;// Font used for displaying text
                 ;// on the graphic display
                 ;#include <font5x7.h>
                 ;
                 ;// Declare your global variables here
                 ;int i,j,cnt1=0,x=50,y=20,cntx=2,cnty=3,cntx1=3,cnty1=2,cnt2=0,x1,y1,x2,y2,x3,y3,x4=10,y4=10,cnt6=0,cnt7=0,cnt8=0;
                 
                 	.DSEG
                 ;float cnt3=4.71239,cnt4=4.71239,cnt5=4.71239;
                 ;
                 ;
                 ;void main(void)
                 ; 0000 0028 {
                 
                 	.CSEG
                 _main:
                 ; .FSTART _main
                 ; 0000 0029 // Declare your local variables here
                 ; 0000 002A // Variable used to store graphic display
                 ; 0000 002B // controller initialization data
                 ; 0000 002C GLCDINIT_t glcd_init_data;
                 ; 0000 002D 
                 ; 0000 002E // Input/Output Ports initialization
                 ; 0000 002F // Port A initialization
                 ; 0000 0030 // Function: Bit7=In Bit6=In Bit5=In Bit4=In Bit3=In Bit2=In Bit1=In Bit0=In
                 ; 0000 0031 DDRA=(0<<DDA7) | (0<<DDA6) | (0<<DDA5) | (0<<DDA4) | (0<<DDA3) | (0<<DDA2) | (0<<DDA1) | (0<<DDA0);
000192 9728      	SBIW R28,8
                 ;	glcd_init_data -> Y+0
000193 e0e0      	LDI  R30,LOW(0)
000194 bbea      	OUT  0x1A,R30
                 ; 0000 0032 // State: Bit7=T Bit6=T Bit5=T Bit4=T Bit3=T Bit2=T Bit1=T Bit0=T
                 ; 0000 0033 PORTA=(0<<PORTA7) | (0<<PORTA6) | (0<<PORTA5) | (0<<PORTA4) | (0<<PORTA3) | (0<<PORTA2) | (0<<PORTA1) | (0<<PORTA0);
000195 bbeb      	OUT  0x1B,R30
                 ; 0000 0034 
                 ; 0000 0035 // Port B initialization
                 ; 0000 0036 // Function: Bit7=Out Bit6=Out Bit5=Out Bit4=Out Bit3=Out Bit2=Out Bit1=Out Bit0=Out
                 ; 0000 0037 DDRB=(1<<DDB7) | (1<<DDB6) | (1<<DDB5) | (1<<DDB4) | (1<<DDB3) | (1<<DDB2) | (1<<DDB1) | (1<<DDB0);
000196 efef      	LDI  R30,LOW(255)
000197 bbe7      	OUT  0x17,R30
                 ; 0000 0038 // State: Bit7=0 Bit6=0 Bit5=0 Bit4=0 Bit3=0 Bit2=0 Bit1=0 Bit0=0
                 ; 0000 0039 PORTB=(0<<PORTB7) | (0<<PORTB6) | (0<<PORTB5) | (0<<PORTB4) | (0<<PORTB3) | (0<<PORTB2) | (0<<PORTB1) | (0<<PORTB0);
000198 e0e0      	LDI  R30,LOW(0)
000199 bbe8      	OUT  0x18,R30
                 ; 0000 003A 
                 ; 0000 003B // Port C initialization
                 ; 0000 003C // Function: Bit7=In Bit6=In Bit5=In Bit4=In Bit3=In Bit2=In Bit1=In Bit0=In
                 ; 0000 003D DDRC=(0<<DDC7) | (0<<DDC6) | (0<<DDC5) | (0<<DDC4) | (0<<DDC3) | (0<<DDC2) | (0<<DDC1) | (0<<DDC0);
00019a bbe4      	OUT  0x14,R30
                 ; 0000 003E // State: Bit7=T Bit6=T Bit5=T Bit4=T Bit3=T Bit2=T Bit1=T Bit0=T
                 ; 0000 003F PORTC=(0<<PORTC7) | (0<<PORTC6) | (0<<PORTC5) | (0<<PORTC4) | (0<<PORTC3) | (0<<PORTC2) | (0<<PORTC1) | (0<<PORTC0);
00019b bbe5      	OUT  0x15,R30
                 ; 0000 0040 
                 ; 0000 0041 // Port D initialization
                 ; 0000 0042 // Function: Bit7=In Bit6=In Bit5=In Bit4=In Bit3=In Bit2=In Bit1=In Bit0=In
                 ; 0000 0043 DDRD=(0<<DDD7) | (0<<DDD6) | (0<<DDD5) | (0<<DDD4) | (0<<DDD3) | (0<<DDD2) | (0<<DDD1) | (0<<DDD0);
00019c bbe1      	OUT  0x11,R30
                 ; 0000 0044 // State: Bit7=T Bit6=T Bit5=T Bit4=T Bit3=T Bit2=T Bit1=T Bit0=T
                 ; 0000 0045 PORTD=(0<<PORTD7) | (0<<PORTD6) | (0<<PORTD5) | (0<<PORTD4) | (0<<PORTD3) | (0<<PORTD2) | (0<<PORTD1) | (0<<PORTD0);
00019d bbe2      	OUT  0x12,R30
                 ; 0000 0046 
                 ; 0000 0047 // Timer/Counter 0 initialization
                 ; 0000 0048 // Clock source: System Clock
                 ; 0000 0049 // Clock value: Timer 0 Stopped
                 ; 0000 004A // Mode: Normal top=0xFF
                 ; 0000 004B // OC0 output: Disconnected
                 ; 0000 004C TCCR0=(0<<WGM00) | (0<<COM01) | (0<<COM00) | (0<<WGM01) | (0<<CS02) | (0<<CS01) | (0<<CS00);
00019e bfe3      	OUT  0x33,R30
                 ; 0000 004D TCNT0=0x00;
00019f bfe2      	OUT  0x32,R30
                 ; 0000 004E OCR0=0x00;
0001a0 bfec      	OUT  0x3C,R30
                 ; 0000 004F 
                 ; 0000 0050 // Timer/Counter 1 initialization
                 ; 0000 0051 // Clock source: System Clock
                 ; 0000 0052 // Clock value: Timer1 Stopped
                 ; 0000 0053 // Mode: Normal top=0xFFFF
                 ; 0000 0054 // OC1A output: Disconnected
                 ; 0000 0055 // OC1B output: Disconnected
                 ; 0000 0056 // Noise Canceler: Off
                 ; 0000 0057 // Input Capture on Falling Edge
                 ; 0000 0058 // Timer1 Overflow Interrupt: Off
                 ; 0000 0059 // Input Capture Interrupt: Off
                 ; 0000 005A // Compare A Match Interrupt: Off
                 ; 0000 005B // Compare B Match Interrupt: Off
                 ; 0000 005C TCCR1A=(0<<COM1A1) | (0<<COM1A0) | (0<<COM1B1) | (0<<COM1B0) | (0<<WGM11) | (0<<WGM10);
0001a1 bdef      	OUT  0x2F,R30
                 ; 0000 005D TCCR1B=(0<<ICNC1) | (0<<ICES1) | (0<<WGM13) | (0<<WGM12) | (0<<CS12) | (0<<CS11) | (0<<CS10);
0001a2 bdee      	OUT  0x2E,R30
                 ; 0000 005E TCNT1H=0x00;
0001a3 bded      	OUT  0x2D,R30
                 ; 0000 005F TCNT1L=0x00;
0001a4 bdec      	OUT  0x2C,R30
                 ; 0000 0060 ICR1H=0x00;
0001a5 bde7      	OUT  0x27,R30
                 ; 0000 0061 ICR1L=0x00;
0001a6 bde6      	OUT  0x26,R30
                 ; 0000 0062 OCR1AH=0x00;
0001a7 bdeb      	OUT  0x2B,R30
                 ; 0000 0063 OCR1AL=0x00;
0001a8 bdea      	OUT  0x2A,R30
                 ; 0000 0064 OCR1BH=0x00;
0001a9 bde9      	OUT  0x29,R30
                 ; 0000 0065 OCR1BL=0x00;
0001aa bde8      	OUT  0x28,R30
                 ; 0000 0066 
                 ; 0000 0067 // Timer/Counter 2 initialization
                 ; 0000 0068 // Clock source: System Clock
                 ; 0000 0069 // Clock value: Timer2 Stopped
                 ; 0000 006A // Mode: Normal top=0xFF
                 ; 0000 006B // OC2 output: Disconnected
                 ; 0000 006C ASSR=0<<AS2;
0001ab bde2      	OUT  0x22,R30
                 ; 0000 006D TCCR2=(0<<PWM2) | (0<<COM21) | (0<<COM20) | (0<<CTC2) | (0<<CS22) | (0<<CS21) | (0<<CS20);
0001ac bde5      	OUT  0x25,R30
                 ; 0000 006E TCNT2=0x00;
0001ad bde4      	OUT  0x24,R30
                 ; 0000 006F OCR2=0x00;
0001ae bde3      	OUT  0x23,R30
                 ; 0000 0070 
                 ; 0000 0071 // Timer(s)/Counter(s) Interrupt(s) initialization
                 ; 0000 0072 TIMSK=(0<<OCIE2) | (0<<TOIE2) | (0<<TICIE1) | (0<<OCIE1A) | (0<<OCIE1B) | (0<<TOIE1) | (0<<OCIE0) | (0<<TOIE0);
0001af bfe9      	OUT  0x39,R30
                 ; 0000 0073 
                 ; 0000 0074 // External Interrupt(s) initialization
                 ; 0000 0075 // INT0: Off
                 ; 0000 0076 // INT1: Off
                 ; 0000 0077 // INT2: Off
                 ; 0000 0078 MCUCR=(0<<ISC11) | (0<<ISC10) | (0<<ISC01) | (0<<ISC00);
0001b0 bfe5      	OUT  0x35,R30
                 ; 0000 0079 MCUCSR=(0<<ISC2);
0001b1 bfe4      	OUT  0x34,R30
                 ; 0000 007A 
                 ; 0000 007B // USART initialization
                 ; 0000 007C // USART disabled
                 ; 0000 007D UCSRB=(0<<RXCIE) | (0<<TXCIE) | (0<<UDRIE) | (0<<RXEN) | (0<<TXEN) | (0<<UCSZ2) | (0<<RXB8) | (0<<TXB8);
0001b2 b9ea      	OUT  0xA,R30
                 ; 0000 007E 
                 ; 0000 007F // Analog Comparator initialization
                 ; 0000 0080 // Analog Comparator: Off
                 ; 0000 0081 // The Analog Comparator's positive input is
                 ; 0000 0082 // connected to the AIN0 pin
                 ; 0000 0083 // The Analog Comparator's negative input is
                 ; 0000 0084 // connected to the AIN1 pin
                 ; 0000 0085 ACSR=(1<<ACD) | (0<<ACBG) | (0<<ACO) | (0<<ACI) | (0<<ACIE) | (0<<ACIC) | (0<<ACIS1) | (0<<ACIS0);
0001b3 e8e0      	LDI  R30,LOW(128)
0001b4 b9e8      	OUT  0x8,R30
                 ; 0000 0086 SFIOR=(0<<ACME);
0001b5 e0e0      	LDI  R30,LOW(0)
0001b6 bfe0      	OUT  0x30,R30
                 ; 0000 0087 
                 ; 0000 0088 // ADC initialization
                 ; 0000 0089 // ADC disabled
                 ; 0000 008A ADCSRA=(0<<ADEN) | (0<<ADSC) | (0<<ADATE) | (0<<ADIF) | (0<<ADIE) | (0<<ADPS2) | (0<<ADPS1) | (0<<ADPS0);
0001b7 b9e6      	OUT  0x6,R30
                 ; 0000 008B 
                 ; 0000 008C // SPI initialization
                 ; 0000 008D // SPI disabled
                 ; 0000 008E SPCR=(0<<SPIE) | (0<<SPE) | (0<<DORD) | (0<<MSTR) | (0<<CPOL) | (0<<CPHA) | (0<<SPR1) | (0<<SPR0);
0001b8 b9ed      	OUT  0xD,R30
                 ; 0000 008F 
                 ; 0000 0090 // TWI initialization
                 ; 0000 0091 // TWI disabled
                 ; 0000 0092 TWCR=(0<<TWEA) | (0<<TWSTA) | (0<<TWSTO) | (0<<TWEN) | (0<<TWIE);
0001b9 bfe6      	OUT  0x36,R30
                 ; 0000 0093 
                 ; 0000 0094 // Graphic Display Controller initialization
                 ; 0000 0095 // The PCD8544 connections are specified in the
                 ; 0000 0096 // Project|Configure|C Compiler|Libraries|Graphic Display menu:
                 ; 0000 0097 // SDIN - PORTC Bit 0
                 ; 0000 0098 // SCLK - PORTC Bit 1
                 ; 0000 0099 // D /C - PORTC Bit 2
                 ; 0000 009A // /SCE - PORTC Bit 3
                 ; 0000 009B // /RES - PORTC Bit 4
                 ; 0000 009C 
                 ; 0000 009D // Specify the current font for displaying text
                 ; 0000 009E glcd_init_data.font=font5x7;
0001ba e5e4      	LDI  R30,LOW(_font5x7*2)
0001bb e0f0      	LDI  R31,HIGH(_font5x7*2)
0001bc 83e8      	ST   Y,R30
0001bd 83f9      	STD  Y+1,R31
                 ; 0000 009F // No function is used for reading
                 ; 0000 00A0 // image data from external memory
                 ; 0000 00A1 glcd_init_data.readxmem=NULL;
0001be e0e0      	LDI  R30,LOW(0)
0001bf 83ea      	STD  Y+2,R30
0001c0 83eb      	STD  Y+2+1,R30
                 ; 0000 00A2 // No function is used for writing
                 ; 0000 00A3 // image data to external memory
                 ; 0000 00A4 glcd_init_data.writexmem=NULL;
0001c1 83ec      	STD  Y+4,R30
0001c2 83ed      	STD  Y+4+1,R30
                 ; 0000 00A5 // Set the LCD temperature coefficient
                 ; 0000 00A6 glcd_init_data.temp_coef=PCD8544_DEFAULT_TEMP_COEF;
0001c3 81ee      	LDD  R30,Y+6
0001c4 7fec      	ANDI R30,LOW(0xFC)
0001c5 83ee      	STD  Y+6,R30
                 ; 0000 00A7 // Set the LCD bias
                 ; 0000 00A8 glcd_init_data.bias=PCD8544_DEFAULT_BIAS;
0001c6 7ee3      	ANDI R30,LOW(0xE3)
0001c7 60ec      	ORI  R30,LOW(0xC)
0001c8 83ee      	STD  Y+6,R30
                 ; 0000 00A9 // Set the LCD contrast control voltage VLCD
                 ; 0000 00AA glcd_init_data.vlcd=PCD8544_DEFAULT_VLCD;
0001c9 81ef      	LDD  R30,Y+7
0001ca 78e0      	ANDI R30,LOW(0x80)
0001cb 63e2      	ORI  R30,LOW(0x32)
0001cc 83ef      	STD  Y+7,R30
                 ; 0000 00AB 
                 ; 0000 00AC glcd_init(&glcd_init_data);
0001cd 01de      	MOVW R26,R28
0001ce 940e 051e 	CALL _glcd_init
                 ; 0000 00AD 
                 ; 0000 00AE while (1)
                 _0xC:
                 ; 0000 00AF       {
                 ; 0000 00B0       // Place your code here
                 ; 0000 00B1 //      glcd_putcharxy(10,10,'F');
                 ; 0000 00B2       if(PINA.1 == 0)
0001d0 99c9      	SBIC 0x19,1
0001d1 c00a      	RJMP _0xF
                 ; 0000 00B3         {
                 ; 0000 00B4         cnt2++;
0001d2 e9a2      	LDI  R26,LOW(_cnt2)
0001d3 e0b1      	LDI  R27,HIGH(_cnt2)
0001d4 940e 0d66 	CALL SUBOPT_0x0
                 ; 0000 00B5         delay_ms(300);
0001d6 e2ac      	LDI  R26,LOW(300)
0001d7 e0b1      	LDI  R27,HIGH(300)
0001d8 940e 0f2d 	CALL _delay_ms
                 ; 0000 00B6         glcd_clear();
0001da 940e 05a4 	CALL _glcd_clear
                 ; 0000 00B7         }
                 ; 0000 00B8       cnt2%=4;
                 _0xF:
0001dc 91e0 0192 	LDS  R30,_cnt2
0001de 91f0 0193 	LDS  R31,_cnt2+1
0001e0 e0a3      	LDI  R26,LOW(3)
0001e1 e0b0      	LDI  R27,HIGH(3)
0001e2 940e 111b 	CALL __MANDW12
0001e4 93e0 0192 	STS  _cnt2,R30
0001e6 93f0 0193 	STS  _cnt2+1,R31
                 ; 0000 00B9       if (cnt2 == 0)
0001e8 9730      	SBIW R30,0
0001e9 f009      	BREQ PC+2
0001ea c0a7      	RJMP _0x10
                 ; 0000 00BA           {
                 ; 0000 00BB           glcd_clear();
0001eb 940e 05a4 	CALL _glcd_clear
                 ; 0000 00BC           glcd_fillcircle(x,y,5);
0001ed 92aa      	ST   -Y,R10
0001ee 92ca      	ST   -Y,R12
0001ef e0a5      	LDI  R26,LOW(5)
0001f0 940e 0cc2 	CALL _glcd_fillcircle
                 ; 0000 00BD           glcd_fillcircle(x4,y4,5);
0001f2 91e0 01a0 	LDS  R30,_x4
0001f4 93ea      	ST   -Y,R30
0001f5 91e0 01a2 	LDS  R30,_y4
0001f7 93ea      	ST   -Y,R30
0001f8 e0a5      	LDI  R26,LOW(5)
0001f9 940e 0cc2 	CALL _glcd_fillcircle
                 ; 0000 00BE           glcd_rectangle(0,0,84,48);
0001fb e0e0      	LDI  R30,LOW(0)
0001fc 93ea      	ST   -Y,R30
0001fd 93ea      	ST   -Y,R30
0001fe e5e4      	LDI  R30,LOW(84)
0001ff 93ea      	ST   -Y,R30
000200 e3a0      	LDI  R26,LOW(48)
000201 940e 0aa3 	CALL _glcd_rectangle
                 ; 0000 00BF           if (x < 6 || x > 78) cntx*=-1;
000203 e0e6      	LDI  R30,LOW(6)
000204 e0f0      	LDI  R31,HIGH(6)
000205 16ae      	CP   R10,R30
000206 06bf      	CPC  R11,R31
000207 f02c      	BRLT _0x12
000208 e4ee      	LDI  R30,LOW(78)
000209 e0f0      	LDI  R31,HIGH(78)
00020a 15ea      	CP   R30,R10
00020b 05fb      	CPC  R31,R11
00020c f414      	BRGE _0x11
                 _0x12:
00020d 940e 0d6c 	CALL SUBOPT_0x1
                 ; 0000 00C0           if (y < 6 || y > 42) cnty*=-1;
                 _0x11:
00020f e0e6      	LDI  R30,LOW(6)
000210 e0f0      	LDI  R31,HIGH(6)
000211 16ce      	CP   R12,R30
000212 06df      	CPC  R13,R31
000213 f02c      	BRLT _0x15
000214 e2ea      	LDI  R30,LOW(42)
000215 e0f0      	LDI  R31,HIGH(42)
000216 15ec      	CP   R30,R12
000217 05fd      	CPC  R31,R13
000218 f454      	BRGE _0x14
                 _0x15:
000219 91e0 018c 	LDS  R30,_cnty
00021b 91f0 018d 	LDS  R31,_cnty+1
00021d 940e 0d79 	CALL SUBOPT_0x2
00021f 93e0 018c 	STS  _cnty,R30
000221 93f0 018d 	STS  _cnty+1,R31
                 ; 0000 00C1           if (x4 < 6 || x4 > 78) cntx1*=-1;
                 _0x14:
000223 940e 0d7e 	CALL SUBOPT_0x3
000225 9716      	SBIW R26,6
000226 f034      	BRLT _0x18
000227 940e 0d7e 	CALL SUBOPT_0x3
000229 34af      	CPI  R26,LOW(0x4F)
00022a e0e0      	LDI  R30,HIGH(0x4F)
00022b 07be      	CPC  R27,R30
00022c f034      	BRLT _0x17
                 _0x18:
00022d 940e 0d83 	CALL SUBOPT_0x4
00022f 93e0 018e 	STS  _cntx1,R30
000231 93f0 018f 	STS  _cntx1+1,R31
                 ; 0000 00C2           if (y4 < 6 || y4 > 42) cnty1*=-1;
                 _0x17:
000233 940e 0d88 	CALL SUBOPT_0x5
000235 9716      	SBIW R26,6
000236 f024      	BRLT _0x1B
000237 940e 0d88 	CALL SUBOPT_0x5
000239 979b      	SBIW R26,43
00023a f054      	BRLT _0x1A
                 _0x1B:
00023b 91e0 0190 	LDS  R30,_cnty1
00023d 91f0 0191 	LDS  R31,_cnty1+1
00023f 940e 0d79 	CALL SUBOPT_0x2
000241 93e0 0190 	STS  _cnty1,R30
000243 93f0 0191 	STS  _cnty1+1,R31
                 ; 0000 00C3           if (x-x4<10 && y-y4<10 && x-x4>-10 && y-y4>-10)
                 _0x1A:
000245 940e 0d7e 	CALL SUBOPT_0x3
000247 01f5      	MOVW R30,R10
000248 1bea      	SUB  R30,R26
000249 0bfb      	SBC  R31,R27
00024a 010f      	MOVW R0,R30
00024b 973a      	SBIW R30,10
00024c f4bc      	BRGE _0x1E
00024d 940e 0d88 	CALL SUBOPT_0x5
00024f 01f6      	MOVW R30,R12
000250 1bea      	SUB  R30,R26
000251 0bfb      	SBC  R31,R27
000252 973a      	SBIW R30,10
000253 f484      	BRGE _0x1E
000254 efe6      	LDI  R30,LOW(65526)
000255 efff      	LDI  R31,HIGH(65526)
000256 15e0      	CP   R30,R0
000257 05f1      	CPC  R31,R1
000258 f45c      	BRGE _0x1E
000259 940e 0d88 	CALL SUBOPT_0x5
00025b 01f6      	MOVW R30,R12
00025c 1bea      	SUB  R30,R26
00025d 0bfb      	SBC  R31,R27
00025e 01df      	MOVW R26,R30
00025f efe6      	LDI  R30,LOW(65526)
000260 efff      	LDI  R31,HIGH(65526)
000261 17ea      	CP   R30,R26
000262 07fb      	CPC  R31,R27
000263 f00c      	BRLT _0x1F
                 _0x1E:
000264 c008      	RJMP _0x1D
                 _0x1F:
                 ; 0000 00C4             {
                 ; 0000 00C5             cntx*=-1;
000265 940e 0d6c 	CALL SUBOPT_0x1
                 ; 0000 00C6             cntx1*=-1;
000267 940e 0d83 	CALL SUBOPT_0x4
000269 93e0 018e 	STS  _cntx1,R30
00026b 93f0 018f 	STS  _cntx1+1,R31
                 ; 0000 00C7             }
                 ; 0000 00C8           x+=cntx;
                 _0x1D:
00026d 91e0 018a 	LDS  R30,_cntx
00026f 91f0 018b 	LDS  R31,_cntx+1
                +
000271 0eae     +ADD R10 , R30
000272 1ebf     +ADC R11 , R31
                 	__ADDWRR 10,11,30,31
                 ; 0000 00C9           y+=cnty;
000273 91e0 018c 	LDS  R30,_cnty
000275 91f0 018d 	LDS  R31,_cnty+1
                +
000277 0ece     +ADD R12 , R30
000278 1edf     +ADC R13 , R31
                 	__ADDWRR 12,13,30,31
                 ; 0000 00CA           x4+=cntx1;
000279 91e0 018e 	LDS  R30,_cntx1
00027b 91f0 018f 	LDS  R31,_cntx1+1
00027d 940e 0d7e 	CALL SUBOPT_0x3
00027f 0fea      	ADD  R30,R26
000280 1ffb      	ADC  R31,R27
000281 93e0 01a0 	STS  _x4,R30
000283 93f0 01a1 	STS  _x4+1,R31
                 ; 0000 00CB           y4+=cnty1;
000285 91e0 0190 	LDS  R30,_cnty1
000287 91f0 0191 	LDS  R31,_cnty1+1
000289 940e 0d88 	CALL SUBOPT_0x5
00028b 0fea      	ADD  R30,R26
00028c 1ffb      	ADC  R31,R27
00028d 93e0 01a2 	STS  _y4,R30
00028f 93f0 01a3 	STS  _y4+1,R31
                 ; 0000 00CC           }
                 ; 0000 00CD       else if (cnt2 == 1)
000291 c153      	RJMP _0x20
                 _0x10:
000292 91a0 0192 	LDS  R26,_cnt2
000294 91b0 0193 	LDS  R27,_cnt2+1
000296 9711      	SBIW R26,1
000297 f5d9      	BRNE _0x21
                 ; 0000 00CE         {
                 ; 0000 00CF         PORTB.0=1;
000298 9ac0      	SBI  0x18,0
                 ; 0000 00D0         delay_us(10);
                +
000299 e18b     +LDI R24 , LOW ( 27 )
                +__DELAY_USB_LOOP :
00029a 958a     +DEC R24
00029b f7f1     +BRNE __DELAY_USB_LOOP
                 	__DELAY_USB 27
                 ; 0000 00D1         PORTB.0=0;
00029c 98c0      	CBI  0x18,0
                 ; 0000 00D2         cnt1=0;
00029d 2488      	CLR  R8
00029e 2499      	CLR  R9
                 ; 0000 00D3         while(PINA.0==0);
                 _0x26:
00029f 9bc8      	SBIS 0x19,0
0002a0 cffe      	RJMP _0x26
                 ; 0000 00D4         while(PINA.0==1)
                 _0x29:
0002a1 9bc8      	SBIS 0x19,0
0002a2 c008      	RJMP _0x2B
                 ; 0000 00D5             {
                 ; 0000 00D6             cnt1++;
0002a3 01f4      	MOVW R30,R8
0002a4 9631      	ADIW R30,1
0002a5 014f      	MOVW R8,R30
0002a6 9731      	SBIW R30,1
                 ; 0000 00D7             delay_us(1);
                +
0002a7 e083     +LDI R24 , LOW ( 3 )
                +__DELAY_USB_LOOP :
0002a8 958a     +DEC R24
0002a9 f7f1     +BRNE __DELAY_USB_LOOP
                 	__DELAY_USB 3
                 ; 0000 00D8             }
0002aa cff6      	RJMP _0x29
                 _0x2B:
                 ; 0000 00D9         cnt1/=22;
0002ab 01d4      	MOVW R26,R8
0002ac e1e6      	LDI  R30,LOW(22)
0002ad e0f0      	LDI  R31,HIGH(22)
0002ae 940e 1108 	CALL __DIVW21
0002b0 014f      	MOVW R8,R30
                 ; 0000 00DA         glcd_outtextxy(10,0,"Distance:");
0002b1 e0ea      	LDI  R30,LOW(10)
0002b2 93ea      	ST   -Y,R30
0002b3 e0e0      	LDI  R30,LOW(0)
0002b4 93ea      	ST   -Y,R30
                +
0002b5 e6a0     +LDI R26 , LOW ( _0x2C + ( 0 ) )
0002b6 e0b1     +LDI R27 , HIGH ( _0x2C + ( 0 ) )
                 	__POINTW2MN _0x2C,0
0002b7 940e 0945 	CALL _glcd_outtextxy
                 ; 0000 00DB         glcd_putcharxy(13,20,((cnt1/100)%10+'0'));
0002b9 e0ed      	LDI  R30,LOW(13)
0002ba 940e 0d8d 	CALL SUBOPT_0x6
0002bc e6e4      	LDI  R30,LOW(100)
0002bd e0f0      	LDI  R31,HIGH(100)
0002be 940e 0d92 	CALL SUBOPT_0x7
                 ; 0000 00DC         glcd_putcharxy(20,20,((cnt1/10)%10+'0'));
0002c0 e1e4      	LDI  R30,LOW(20)
0002c1 940e 0d8d 	CALL SUBOPT_0x6
0002c3 940e 0d9d 	CALL SUBOPT_0x8
                 ; 0000 00DD         glcd_putcharxy(27,20,((cnt1/1)%10+'0'));
0002c5 e1eb      	LDI  R30,LOW(27)
0002c6 940e 0d8d 	CALL SUBOPT_0x6
0002c8 940e 0da0 	CALL SUBOPT_0x9
                 ; 0000 00DE         glcd_outtextxy(33,20,"cm");
0002ca e2e1      	LDI  R30,LOW(33)
0002cb 93ea      	ST   -Y,R30
0002cc e1e4      	LDI  R30,LOW(20)
0002cd 93ea      	ST   -Y,R30
                +
0002ce e6aa     +LDI R26 , LOW ( _0x2C + ( 10 ) )
0002cf e0b1     +LDI R27 , HIGH ( _0x2C + ( 10 ) )
                 	__POINTW2MN _0x2C,10
0002d0 940e 0945 	CALL _glcd_outtextxy
                 ; 0000 00DF         }
                 ; 0000 00E0       else if (cnt2 == 2)
0002d2 c112      	RJMP _0x2D
                 _0x21:
0002d3 91a0 0192 	LDS  R26,_cnt2
0002d5 91b0 0193 	LDS  R27,_cnt2+1
0002d7 9712      	SBIW R26,2
0002d8 f009      	BREQ PC+2
0002d9 c10b      	RJMP _0x2E
                 ; 0000 00E1         {
                 ; 0000 00E2         glcd_clear();
0002da 940e 05a4 	CALL _glcd_clear
                 ; 0000 00E3         if (cnt3 >=11)
0002dc 940e 0da8 	CALL SUBOPT_0xA
0002de 940e 0db1 	CALL SUBOPT_0xB
0002e0 f0b0      	BRLO _0x2F
                 ; 0000 00E4             {
                 ; 0000 00E5             cnt4+=0.10472;
0002e1 91e0 01ae 	LDS  R30,_cnt4
0002e3 91f0 01af 	LDS  R31,_cnt4+1
0002e5 9160 01b0 	LDS  R22,_cnt4+2
0002e7 9170 01b1 	LDS  R23,_cnt4+3
0002e9 940e 0db8 	CALL SUBOPT_0xC
0002eb 940e 0dbf 	CALL SUBOPT_0xD
                 ; 0000 00E6             cnt7++;
0002ed eaa6      	LDI  R26,LOW(_cnt7)
0002ee e0b1      	LDI  R27,HIGH(_cnt7)
0002ef 940e 0d66 	CALL SUBOPT_0x0
                 ; 0000 00E7             cnt3 = 4.71239;
                +
0002f1 eee6     +LDI R30 , LOW ( 0x4096CBE6 )
0002f2 ecfb     +LDI R31 , HIGH ( 0x4096CBE6 )
0002f3 e966     +LDI R22 , BYTE3 ( 0x4096CBE6 )
0002f4 e470     +LDI R23 , BYTE4 ( 0x4096CBE6 )
                 	__GETD1N 0x4096CBE6
0002f5 940e 0dc8 	CALL SUBOPT_0xE
                 ; 0000 00E8             }
                 ; 0000 00E9         if (cnt4 >=11)
                 _0x2F:
0002f7 940e 0dd1 	CALL SUBOPT_0xF
0002f9 940e 0db1 	CALL SUBOPT_0xB
0002fb f100      	BRLO _0x30
                 ; 0000 00EA             {
                 ; 0000 00EB             cnt5+=0.523599;
0002fc 91e0 01b2 	LDS  R30,_cnt5
0002fe 91f0 01b3 	LDS  R31,_cnt5+1
000300 9160 01b4 	LDS  R22,_cnt5+2
000302 9170 01b5 	LDS  R23,_cnt5+3
                +
000304 e9a6     +LDI R26 , LOW ( 0x3F060A96 )
000305 e0ba     +LDI R27 , HIGH ( 0x3F060A96 )
000306 e086     +LDI R24 , BYTE3 ( 0x3F060A96 )
000307 e39f     +LDI R25 , BYTE4 ( 0x3F060A96 )
                 	__GETD2N 0x3F060A96
000308 940e 0fbf 	CALL __ADDF12
00030a 93e0 01b2 	STS  _cnt5,R30
00030c 93f0 01b3 	STS  _cnt5+1,R31
00030e 9360 01b4 	STS  _cnt5+2,R22
000310 9370 01b5 	STS  _cnt5+3,R23
                 ; 0000 00EC             cnt8++;
000312 eaa8      	LDI  R26,LOW(_cnt8)
000313 e0b1      	LDI  R27,HIGH(_cnt8)
000314 940e 0d66 	CALL SUBOPT_0x0
                 ; 0000 00ED             cnt4 = 4.71239;
                +
000316 eee6     +LDI R30 , LOW ( 0x4096CBE6 )
000317 ecfb     +LDI R31 , HIGH ( 0x4096CBE6 )
000318 e966     +LDI R22 , BYTE3 ( 0x4096CBE6 )
000319 e470     +LDI R23 , BYTE4 ( 0x4096CBE6 )
                 	__GETD1N 0x4096CBE6
00031a 940e 0dbf 	CALL SUBOPT_0xD
                 ; 0000 00EE             }
                 ; 0000 00EF         glcd_circle(62,24,20);
                 _0x30:
00031c 940e 0dda 	CALL SUBOPT_0x10
00031e e1a4      	LDI  R26,LOW(20)
00031f 940e 0cb8 	CALL _glcd_circle
                 ; 0000 00F0         y1=sin(cnt3)*15;
000321 940e 0da8 	CALL SUBOPT_0xA
000323 940e 042d 	CALL _sin
000325 940e 0ddf 	CALL SUBOPT_0x11
000327 e9a6      	LDI  R26,LOW(_y1)
000328 e0b1      	LDI  R27,HIGH(_y1)
000329 940e 0de6 	CALL SUBOPT_0x12
                 ; 0000 00F1         x1=cos(cnt3)*15;
00032b 940e 0da8 	CALL SUBOPT_0xA
00032d 940e 04b9 	CALL _cos
00032f 940e 0ddf 	CALL SUBOPT_0x11
000331 e9a4      	LDI  R26,LOW(_x1)
000332 e0b1      	LDI  R27,HIGH(_x1)
000333 940e 0de6 	CALL SUBOPT_0x12
                 ; 0000 00F2         y2=sin(cnt4)*12;
000335 940e 0dd1 	CALL SUBOPT_0xF
000337 940e 042d 	CALL _sin
000339 940e 0deb 	CALL SUBOPT_0x13
00033b e9aa      	LDI  R26,LOW(_y2)
00033c e0b1      	LDI  R27,HIGH(_y2)
00033d 940e 0de6 	CALL SUBOPT_0x12
                 ; 0000 00F3         x2=cos(cnt4)*12;
00033f 940e 0dd1 	CALL SUBOPT_0xF
000341 940e 04b9 	CALL _cos
000343 940e 0deb 	CALL SUBOPT_0x13
000345 e9a8      	LDI  R26,LOW(_x2)
000346 e0b1      	LDI  R27,HIGH(_x2)
000347 940e 0de6 	CALL SUBOPT_0x12
                 ; 0000 00F4         y3=sin(cnt5)*8;
000349 940e 0df2 	CALL SUBOPT_0x14
00034b 940e 042d 	CALL _sin
00034d 940e 0dfb 	CALL SUBOPT_0x15
00034f e9ae      	LDI  R26,LOW(_y3)
000350 e0b1      	LDI  R27,HIGH(_y3)
000351 940e 0de6 	CALL SUBOPT_0x12
                 ; 0000 00F5         x3=cos(cnt5)*8;
000353 940e 0df2 	CALL SUBOPT_0x14
000355 940e 04b9 	CALL _cos
000357 940e 0dfb 	CALL SUBOPT_0x15
000359 e9ac      	LDI  R26,LOW(_x3)
00035a e0b1      	LDI  R27,HIGH(_x3)
00035b 940e 0de6 	CALL SUBOPT_0x12
                 ; 0000 00F6         glcd_line( 62,24, 62 + x1, 24 + y1);
00035d 940e 0dda 	CALL SUBOPT_0x10
00035f 91e0 0194 	LDS  R30,_x1
000361 5ce2      	SUBI R30,-LOW(62)
000362 93ea      	ST   -Y,R30
000363 91a0 0196 	LDS  R26,_y1
000365 5ea8      	SUBI R26,-LOW(24)
000366 940e 0982 	CALL _glcd_line
                 ; 0000 00F7         glcd_line( 62,24, 62 + x2, 24 + y2);
000368 940e 0dda 	CALL SUBOPT_0x10
00036a 91e0 0198 	LDS  R30,_x2
00036c 5ce2      	SUBI R30,-LOW(62)
00036d 93ea      	ST   -Y,R30
00036e 91a0 019a 	LDS  R26,_y2
000370 5ea8      	SUBI R26,-LOW(24)
000371 940e 0982 	CALL _glcd_line
                 ; 0000 00F8         glcd_line( 62,24, 62 + x3, 24 + y3);
000373 940e 0dda 	CALL SUBOPT_0x10
000375 91e0 019c 	LDS  R30,_x3
000377 5ce2      	SUBI R30,-LOW(62)
000378 93ea      	ST   -Y,R30
000379 91a0 019e 	LDS  R26,_y3
00037b 5ea8      	SUBI R26,-LOW(24)
00037c 940e 0982 	CALL _glcd_line
                 ; 0000 00F9         cnt6%=60;
00037e 940e 0e02 	CALL SUBOPT_0x16
000380 e3ec      	LDI  R30,LOW(60)
000381 e0f0      	LDI  R31,HIGH(60)
000382 940e 110d 	CALL __MODW21
000384 93e0 01a4 	STS  _cnt6,R30
000386 93f0 01a5 	STS  _cnt6+1,R31
                 ; 0000 00FA         cnt7%=60;
000388 940e 0e07 	CALL SUBOPT_0x17
00038a e3ec      	LDI  R30,LOW(60)
00038b e0f0      	LDI  R31,HIGH(60)
00038c 940e 110d 	CALL __MODW21
00038e 93e0 01a6 	STS  _cnt7,R30
000390 93f0 01a7 	STS  _cnt7+1,R31
                 ; 0000 00FB         cnt8%=12;
000392 940e 0e0c 	CALL SUBOPT_0x18
000394 e0ec      	LDI  R30,LOW(12)
000395 e0f0      	LDI  R31,HIGH(12)
000396 940e 110d 	CALL __MODW21
000398 93e0 01a8 	STS  _cnt8,R30
00039a 93f0 01a9 	STS  _cnt8+1,R31
                 ; 0000 00FC         glcd_putcharxy(0,0,((cnt8/10)%10+'0'));
00039c e0e0      	LDI  R30,LOW(0)
00039d 93ea      	ST   -Y,R30
00039e 93ea      	ST   -Y,R30
00039f 940e 0e0c 	CALL SUBOPT_0x18
0003a1 940e 0d9d 	CALL SUBOPT_0x8
                 ; 0000 00FD         glcd_putcharxy(6,0,((cnt8/1)%10+'0'));
0003a3 e0e6      	LDI  R30,LOW(6)
0003a4 93ea      	ST   -Y,R30
0003a5 e0e0      	LDI  R30,LOW(0)
0003a6 93ea      	ST   -Y,R30
0003a7 940e 0e0c 	CALL SUBOPT_0x18
0003a9 940e 0da0 	CALL SUBOPT_0x9
                 ; 0000 00FE         glcd_putcharxy(12,0,':');
0003ab e0ec      	LDI  R30,LOW(12)
0003ac 940e 0e11 	CALL SUBOPT_0x19
                 ; 0000 00FF         glcd_putcharxy(16,0,((cnt7/10)%10+'0'));
0003ae e1e0      	LDI  R30,LOW(16)
0003af 93ea      	ST   -Y,R30
0003b0 e0e0      	LDI  R30,LOW(0)
0003b1 93ea      	ST   -Y,R30
0003b2 940e 0e07 	CALL SUBOPT_0x17
0003b4 940e 0d9d 	CALL SUBOPT_0x8
                 ; 0000 0100         glcd_putcharxy(22,0,((cnt7/1)%10+'0'));
0003b6 e1e6      	LDI  R30,LOW(22)
0003b7 93ea      	ST   -Y,R30
0003b8 e0e0      	LDI  R30,LOW(0)
0003b9 93ea      	ST   -Y,R30
0003ba 940e 0e07 	CALL SUBOPT_0x17
0003bc 940e 0da0 	CALL SUBOPT_0x9
                 ; 0000 0101         glcd_putcharxy(28,0,':');
0003be e1ec      	LDI  R30,LOW(28)
0003bf 940e 0e11 	CALL SUBOPT_0x19
                 ; 0000 0102         glcd_putcharxy(32,0,((cnt6/10)%10+'0'));
0003c1 e2e0      	LDI  R30,LOW(32)
0003c2 93ea      	ST   -Y,R30
0003c3 e0e0      	LDI  R30,LOW(0)
0003c4 93ea      	ST   -Y,R30
0003c5 940e 0e02 	CALL SUBOPT_0x16
0003c7 940e 0d9d 	CALL SUBOPT_0x8
                 ; 0000 0103         glcd_putcharxy(38,0,((cnt6/1)%10+'0'));
0003c9 e2e6      	LDI  R30,LOW(38)
0003ca 93ea      	ST   -Y,R30
0003cb e0e0      	LDI  R30,LOW(0)
0003cc 93ea      	ST   -Y,R30
0003cd 940e 0e02 	CALL SUBOPT_0x16
0003cf 940e 0da0 	CALL SUBOPT_0x9
                 ; 0000 0104         delay_ms(1000);
0003d1 eea8      	LDI  R26,LOW(1000)
0003d2 e0b3      	LDI  R27,HIGH(1000)
0003d3 940e 0f2d 	CALL _delay_ms
                 ; 0000 0105         cnt3+=0.10472;
0003d5 91e0 01aa 	LDS  R30,_cnt3
0003d7 91f0 01ab 	LDS  R31,_cnt3+1
0003d9 9160 01ac 	LDS  R22,_cnt3+2
0003db 9170 01ad 	LDS  R23,_cnt3+3
0003dd 940e 0db8 	CALL SUBOPT_0xC
0003df 940e 0dc8 	CALL SUBOPT_0xE
                 ; 0000 0106         cnt6++;
0003e1 eaa4      	LDI  R26,LOW(_cnt6)
0003e2 e0b1      	LDI  R27,HIGH(_cnt6)
0003e3 940e 0d66 	CALL SUBOPT_0x0
                 ; 0000 0107         }
                 ; 0000 0108       }
                 _0x2E:
                 _0x2D:
                 _0x20:
0003e5 cdea      	RJMP _0xC
                 ; 0000 0109 }
                 _0x31:
0003e6 cfff      	RJMP _0x31
                 ; .FEND
                 
                 	.DSEG
                 _0x2C:
000160           	.BYTE 0xD
                 
                 	.CSEG
                 _ftrunc:
                 ; .FSTART _ftrunc
0003e7 940e 1146 	CALL __PUTPARD2
0003e9 817b         ldd  r23,y+3
0003ea 816a         ldd  r22,y+2
0003eb 81f9         ldd  r31,y+1
0003ec 81e8         ld   r30,y
0003ed fb77         bst  r23,7
0003ee 0f77         lsl  r23
0003ef fd67         sbrc r22,7
0003f0 6071         sbr  r23,1
0003f1 2f97         mov  r25,r23
0003f2 579e         subi r25,0x7e
0003f3 f081         breq __ftrunc0
0003f4 f078         brcs __ftrunc0
0003f5 3198         cpi  r25,24
0003f6 f490         brsh __ftrunc1
0003f7 27aa         clr  r26
0003f8 27bb         clr  r27
0003f9 2788         clr  r24
                 __ftrunc2:
0003fa 9408         sec
0003fb 9587         ror  r24
0003fc 95b7         ror  r27
0003fd 95a7         ror  r26
0003fe 959a         dec  r25
0003ff f7d1         brne __ftrunc2
000400 23ea         and  r30,r26
000401 23fb         and  r31,r27
000402 2368         and  r22,r24
000403 c005         rjmp __ftrunc1
                 __ftrunc0:
000404 94e8         clt
000405 2777         clr  r23
000406 27ee         clr  r30
000407 27ff         clr  r31
000408 2766         clr  r22
                 __ftrunc1:
000409 776f         cbr  r22,0x80
00040a 9576         lsr  r23
00040b f408         brcc __ftrunc3
00040c 6860         sbr  r22,0x80
                 __ftrunc3:
00040d f977         bld  r23,7
00040e 91a9         ld   r26,y+
00040f 91b9         ld   r27,y+
000410 9189         ld   r24,y+
000411 9199         ld   r25,y+
000412 17ea         cp   r30,r26
000413 07fb         cpc  r31,r27
000414 0768         cpc  r22,r24
000415 0779         cpc  r23,r25
000416 fb97         bst  r25,7
000417 9508         ret
                 ; .FEND
                 _floor:
                 ; .FSTART _floor
000418 940e 0e17 	CALL SUBOPT_0x1A
00041a 940e 03e7 	CALL _ftrunc
00041c 940e 1141 	CALL __PUTD1S0
00041e f421          brne __floor1
                 __floor0:
00041f 940e 1137 	CALL __GETD1S0
000421 940c 05c0 	JMP  _0x210000D
                 __floor1:
000423 f7de          brtc __floor0
000424 940e 1137 	CALL __GETD1S0
                +
000426 e0a0     +LDI R26 , LOW ( 0x3F800000 )
000427 e0b0     +LDI R27 , HIGH ( 0x3F800000 )
000428 e880     +LDI R24 , BYTE3 ( 0x3F800000 )
000429 e39f     +LDI R25 , BYTE4 ( 0x3F800000 )
                 	__GETD2N 0x3F800000
00042a 940e 0fb8 	CALL __SUBF12
00042c c193      	RJMP _0x210000D
                 ; .FEND
                 _sin:
                 ; .FSTART _sin
00042d 940e 1146 	CALL __PUTPARD2
00042f 9724      	SBIW R28,4
000430 931a      	ST   -Y,R17
000431 e010      	LDI  R17,0
000432 940e 0e1c 	CALL SUBOPT_0x1B
                +
000434 e8e3     +LDI R30 , LOW ( 0x3E22F983 )
000435 eff9     +LDI R31 , HIGH ( 0x3E22F983 )
000436 e262     +LDI R22 , BYTE3 ( 0x3E22F983 )
000437 e37e     +LDI R23 , BYTE4 ( 0x3E22F983 )
                 	__GETD1N 0x3E22F983
000438 940e 100f 	CALL __MULF12
00043a 940e 0e21 	CALL SUBOPT_0x1C
00043c dfdb      	RCALL _floor
00043d 940e 0e1c 	CALL SUBOPT_0x1B
00043f 940e 114b 	CALL __SWAPD12
000441 940e 0fb8 	CALL __SUBF12
000443 940e 0e21 	CALL SUBOPT_0x1C
                +
000445 e0e0     +LDI R30 , LOW ( 0x3F000000 )
000446 e0f0     +LDI R31 , HIGH ( 0x3F000000 )
000447 e060     +LDI R22 , BYTE3 ( 0x3F000000 )
000448 e37f     +LDI R23 , BYTE4 ( 0x3F000000 )
                 	__GETD1N 0x3F000000
000449 940e 10a2 	CALL __CMPF12
00044b f009      	BREQ PC+2
00044c f408      	BRCC PC+2
00044d c009      	RJMP _0x2000017
00044e 940e 0e26 	CALL SUBOPT_0x1D
                +
000450 e0a0     +LDI R26 , LOW ( 0x3F000000 )
000451 e0b0     +LDI R27 , HIGH ( 0x3F000000 )
000452 e080     +LDI R24 , BYTE3 ( 0x3F000000 )
000453 e39f     +LDI R25 , BYTE4 ( 0x3F000000 )
                 	__GETD2N 0x3F000000
000454 940e 0e2b 	CALL SUBOPT_0x1E
000456 e011      	LDI  R17,LOW(1)
                 _0x2000017:
000457 940e 0e1c 	CALL SUBOPT_0x1B
                +
000459 e0e0     +LDI R30 , LOW ( 0x3E800000 )
00045a e0f0     +LDI R31 , HIGH ( 0x3E800000 )
00045b e860     +LDI R22 , BYTE3 ( 0x3E800000 )
00045c e37e     +LDI R23 , BYTE4 ( 0x3E800000 )
                 	__GETD1N 0x3E800000
00045d 940e 10a2 	CALL __CMPF12
00045f f009      	BREQ PC+2
000460 f408      	BRCC PC+2
000461 c008      	RJMP _0x2000018
000462 940e 0e1c 	CALL SUBOPT_0x1B
                +
000464 e0e0     +LDI R30 , LOW ( 0x3F000000 )
000465 e0f0     +LDI R31 , HIGH ( 0x3F000000 )
000466 e060     +LDI R22 , BYTE3 ( 0x3F000000 )
000467 e37f     +LDI R23 , BYTE4 ( 0x3F000000 )
                 	__GETD1N 0x3F000000
000468 940e 0e2b 	CALL SUBOPT_0x1E
                 _0x2000018:
00046a 3010      	CPI  R17,0
00046b f041      	BREQ _0x2000019
00046c 940e 0e26 	CALL SUBOPT_0x1D
00046e 940e 0f37 	CALL __ANEGF1
                +
000470 83ed     +STD Y + 5 , R30
000471 83fe     +STD Y + 5 + 1 , R31
000472 836f     +STD Y + 5 + 2 , R22
000473 8778     +STD Y + 5 + 3 , R23
                 	__PUTD1S 5
                 _0x2000019:
000474 940e 0e26 	CALL SUBOPT_0x1D
000476 940e 0e1c 	CALL SUBOPT_0x1B
000478 940e 100f 	CALL __MULF12
                +
00047a 83e9     +STD Y + 1 , R30
00047b 83fa     +STD Y + 1 + 1 , R31
00047c 836b     +STD Y + 1 + 2 , R22
00047d 837c     +STD Y + 1 + 3 , R23
                 	__PUTD1S 1
                +
00047e eba1     +LDI R26 , LOW ( 0x4226C4B1 )
00047f ecb4     +LDI R27 , HIGH ( 0x4226C4B1 )
000480 e286     +LDI R24 , BYTE3 ( 0x4226C4B1 )
000481 e492     +LDI R25 , BYTE4 ( 0x4226C4B1 )
                 	__GETD2N 0x4226C4B1
000482 940e 100f 	CALL __MULF12
000484 01df      	MOVW R26,R30
000485 01cb      	MOVW R24,R22
                +
000486 e1ed     +LDI R30 , LOW ( 0x422DE51D )
000487 eef5     +LDI R31 , HIGH ( 0x422DE51D )
000488 e26d     +LDI R22 , BYTE3 ( 0x422DE51D )
000489 e472     +LDI R23 , BYTE4 ( 0x422DE51D )
                 	__GETD1N 0x422DE51D
00048a 940e 114b 	CALL __SWAPD12
00048c 940e 0fb8 	CALL __SUBF12
00048e 940e 0e32 	CALL SUBOPT_0x1F
                +
000490 e4ac     +LDI R26 , LOW ( 0x4104534C )
000491 e5b3     +LDI R27 , HIGH ( 0x4104534C )
000492 e084     +LDI R24 , BYTE3 ( 0x4104534C )
000493 e491     +LDI R25 , BYTE4 ( 0x4104534C )
                 	__GETD2N 0x4104534C
000494 940e 0fbf 	CALL __ADDF12
000496 940e 0e1c 	CALL SUBOPT_0x1B
000498 940e 100f 	CALL __MULF12
00049a 937f      	PUSH R23
00049b 936f      	PUSH R22
00049c 93ff      	PUSH R31
00049d 93ef      	PUSH R30
                +
00049e 81e9     +LDD R30 , Y + 1
00049f 81fa     +LDD R31 , Y + 1 + 1
0004a0 816b     +LDD R22 , Y + 1 + 2
0004a1 817c     +LDD R23 , Y + 1 + 3
                 	__GETD1S 1
                +
0004a2 e1a1     +LDI R26 , LOW ( 0x3FDEED11 )
0004a3 eebd     +LDI R27 , HIGH ( 0x3FDEED11 )
0004a4 ed8e     +LDI R24 , BYTE3 ( 0x3FDEED11 )
0004a5 e39f     +LDI R25 , BYTE4 ( 0x3FDEED11 )
                 	__GETD2N 0x3FDEED11
0004a6 940e 0fbf 	CALL __ADDF12
0004a8 940e 0e32 	CALL SUBOPT_0x1F
                +
0004aa e5ae     +LDI R26 , LOW ( 0x3FA87B5E )
0004ab e7bb     +LDI R27 , HIGH ( 0x3FA87B5E )
0004ac ea88     +LDI R24 , BYTE3 ( 0x3FA87B5E )
0004ad e39f     +LDI R25 , BYTE4 ( 0x3FA87B5E )
                 	__GETD2N 0x3FA87B5E
0004ae 940e 0fbf 	CALL __ADDF12
0004b0 91af      	POP  R26
0004b1 91bf      	POP  R27
0004b2 918f      	POP  R24
0004b3 919f      	POP  R25
0004b4 940e 105d 	CALL __DIVF21
0004b6 8118      	LDD  R17,Y+0
0004b7 9629      	ADIW R28,9
0004b8 9508      	RET
                 ; .FEND
                 _cos:
                 ; .FSTART _cos
0004b9 940e 0e17 	CALL SUBOPT_0x1A
                +
0004bb edeb     +LDI R30 , LOW ( 0x3FC90FDB )
0004bc e0ff     +LDI R31 , HIGH ( 0x3FC90FDB )
0004bd ec69     +LDI R22 , BYTE3 ( 0x3FC90FDB )
0004be e37f     +LDI R23 , BYTE4 ( 0x3FC90FDB )
                 	__GETD1N 0x3FC90FDB
0004bf 940e 0fb8 	CALL __SUBF12
0004c1 01df      	MOVW R26,R30
0004c2 01cb      	MOVW R24,R22
0004c3 df69      	RCALL _sin
0004c4 c0fb      	RJMP _0x210000D
                 ; .FEND
                 	#ifndef __SLEEP_DEFINED__
                 	#endif
                 
                 	.CSEG
                 _pcd8544_delay_G101:
                 ; .FSTART _pcd8544_delay_G101
0004c5 9508      	RET
                 ; .FEND
                 _pcd8544_wrbus_G101:
                 ; .FSTART _pcd8544_wrbus_G101
0004c6 93aa      	ST   -Y,R26
0004c7 931a      	ST   -Y,R17
0004c8 98ab      	CBI  0x15,3
0004c9 e018      	LDI  R17,LOW(8)
                 _0x2020004:
0004ca dffa      	RCALL _pcd8544_delay_G101
0004cb 81e9      	LDD  R30,Y+1
0004cc 78e0      	ANDI R30,LOW(0x80)
0004cd f011      	BREQ _0x2020006
0004ce 9aa8      	SBI  0x15,0
0004cf c001      	RJMP _0x2020007
                 _0x2020006:
0004d0 98a8      	CBI  0x15,0
                 _0x2020007:
0004d1 81e9      	LDD  R30,Y+1
0004d2 0fee      	LSL  R30
0004d3 83e9      	STD  Y+1,R30
0004d4 dff0      	RCALL _pcd8544_delay_G101
0004d5 9aa9      	SBI  0x15,1
0004d6 dfee      	RCALL _pcd8544_delay_G101
0004d7 98a9      	CBI  0x15,1
0004d8 5011      	SUBI R17,LOW(1)
0004d9 f781      	BRNE _0x2020004
0004da 9aab      	SBI  0x15,3
0004db 8118      	LDD  R17,Y+0
0004dc c122      	RJMP _0x210000B
                 ; .FEND
                 _pcd8544_wrcmd:
                 ; .FSTART _pcd8544_wrcmd
0004dd 93aa      	ST   -Y,R26
0004de 98aa      	CBI  0x15,2
0004df 81a8      	LD   R26,Y
0004e0 dfe5      	RCALL _pcd8544_wrbus_G101
0004e1 c0c0      	RJMP _0x210000E
                 ; .FEND
                 _pcd8544_wrdata_G101:
                 ; .FSTART _pcd8544_wrdata_G101
0004e2 93aa      	ST   -Y,R26
0004e3 9aaa      	SBI  0x15,2
0004e4 81a8      	LD   R26,Y
0004e5 dfe0      	RCALL _pcd8544_wrbus_G101
0004e6 c0bb      	RJMP _0x210000E
                 ; .FEND
                 _pcd8544_setaddr_G101:
                 ; .FSTART _pcd8544_setaddr_G101
0004e7 93aa      	ST   -Y,R26
0004e8 931a      	ST   -Y,R17
0004e9 81e9      	LDD  R30,Y+1
0004ea 95e6      	LSR  R30
0004eb 95e6      	LSR  R30
0004ec 95e6      	LSR  R30
0004ed 2f1e      	MOV  R17,R30
0004ee e5e4      	LDI  R30,LOW(84)
0004ef 9fe1      	MUL  R30,R17
0004f0 01f0      	MOVW R30,R0
0004f1 01df      	MOVW R26,R30
0004f2 81ea      	LDD  R30,Y+2
0004f3 e0f0      	LDI  R31,0
0004f4 0fea      	ADD  R30,R26
0004f5 1ffb      	ADC  R31,R27
0004f6 93e0 01b6 	STS  _gfx_addr_G101,R30
0004f8 93f0 01b7 	STS  _gfx_addr_G101+1,R31
0004fa 2fe1      	MOV  R30,R17
0004fb 8118      	LDD  R17,Y+0
0004fc 9623      	ADIW R28,3
0004fd 9508      	RET
                 ; .FEND
                 _pcd8544_gotoxy:
                 ; .FSTART _pcd8544_gotoxy
0004fe 93aa      	ST   -Y,R26
0004ff 81e9      	LDD  R30,Y+1
000500 68e0      	ORI  R30,0x80
000501 2fae      	MOV  R26,R30
000502 dfda      	RCALL _pcd8544_wrcmd
000503 81e9      	LDD  R30,Y+1
000504 93ea      	ST   -Y,R30
000505 81a9      	LDD  R26,Y+1
000506 dfe0      	RCALL _pcd8544_setaddr_G101
000507 64e0      	ORI  R30,0x40
000508 2fae      	MOV  R26,R30
000509 dfd3      	RCALL _pcd8544_wrcmd
00050a c0f4      	RJMP _0x210000B
                 ; .FEND
                 _pcd8544_rdbyte:
                 ; .FSTART _pcd8544_rdbyte
00050b 93aa      	ST   -Y,R26
00050c 81e9      	LDD  R30,Y+1
00050d 93ea      	ST   -Y,R30
00050e 81a9      	LDD  R26,Y+1
00050f dfee      	RCALL _pcd8544_gotoxy
000510 940e 0e39 	CALL SUBOPT_0x20
000512 81e0      	LD   R30,Z
000513 c0eb      	RJMP _0x210000B
                 ; .FEND
                 _pcd8544_wrbyte:
                 ; .FSTART _pcd8544_wrbyte
000514 93aa      	ST   -Y,R26
000515 940e 0e40 	CALL SUBOPT_0x21
000517 9731      	SBIW R30,1
000518 54e8      	SUBI R30,LOW(-_gfx_buffer_G101)
000519 4ffe      	SBCI R31,HIGH(-_gfx_buffer_G101)
00051a 81a8      	LD   R26,Y
00051b 83a0      	STD  Z+0,R26
00051c dfc5      	RCALL _pcd8544_wrdata_G101
00051d c084      	RJMP _0x210000E
                 ; .FEND
                 _glcd_init:
                 ; .FSTART _glcd_init
00051e 93ba      	ST   -Y,R27
00051f 93aa      	ST   -Y,R26
000520 940e 117b 	CALL __SAVELOCR4
000522 9aa3      	SBI  0x14,3
000523 9aab      	SBI  0x15,3
000524 9aa1      	SBI  0x14,1
000525 98a9      	CBI  0x15,1
000526 9aa0      	SBI  0x14,0
000527 9aa2      	SBI  0x14,2
000528 9aa4      	SBI  0x14,4
000529 98ac      	CBI  0x15,4
00052a e0aa      	LDI  R26,LOW(10)
00052b e0b0      	LDI  R27,0
00052c 940e 0f2d 	CALL _delay_ms
00052e 9aac      	SBI  0x15,4
00052f 81ec      	LDD  R30,Y+4
000530 81fd      	LDD  R31,Y+4+1
000531 9730      	SBIW R30,0
000532 f121      	BREQ _0x2020008
000533 81e6      	LDD  R30,Z+6
000534 70e3      	ANDI R30,LOW(0x3)
000535 2f1e      	MOV  R17,R30
000536 81ec      	LDD  R30,Y+4
000537 81fd      	LDD  R31,Y+4+1
000538 81e6      	LDD  R30,Z+6
000539 95e6      	LSR  R30
00053a 95e6      	LSR  R30
00053b 70e7      	ANDI R30,LOW(0x7)
00053c 2f0e      	MOV  R16,R30
00053d 81ec      	LDD  R30,Y+4
00053e 81fd      	LDD  R31,Y+4+1
00053f 81e7      	LDD  R30,Z+7
000540 77ef      	ANDI R30,0x7F
000541 2f3e      	MOV  R19,R30
000542 81ac      	LDD  R26,Y+4
000543 81bd      	LDD  R27,Y+4+1
000544 940e 1133 	CALL __GETW1P
                +
000546 93e0 0171+STS _glcd_state + ( 4 ) , R30
000548 93f0 0172+STS _glcd_state + ( 4 ) + 1 , R31
                 	__PUTW1MN _glcd_state,4
00054a 9612      	ADIW R26,2
00054b 940e 1133 	CALL __GETW1P
                +
00054d 93e0 0186+STS _glcd_state + ( 25 ) , R30
00054f 93f0 0187+STS _glcd_state + ( 25 ) + 1 , R31
                 	__PUTW1MN _glcd_state,25
000551 81ac      	LDD  R26,Y+4
000552 81bd      	LDD  R27,Y+4+1
000553 9614      	ADIW R26,4
000554 940e 1133 	CALL __GETW1P
000556 c00d      	RJMP _0x20200A0
                 _0x2020008:
000557 e010      	LDI  R17,LOW(0)
000558 e003      	LDI  R16,LOW(3)
000559 e332      	LDI  R19,LOW(50)
00055a e0e0      	LDI  R30,LOW(0)
00055b e0f0      	LDI  R31,HIGH(0)
                +
00055c 93e0 0171+STS _glcd_state + ( 4 ) , R30
00055e 93f0 0172+STS _glcd_state + ( 4 ) + 1 , R31
                 	__PUTW1MN _glcd_state,4
                +
000560 93e0 0186+STS _glcd_state + ( 25 ) , R30
000562 93f0 0187+STS _glcd_state + ( 25 ) + 1 , R31
                 	__PUTW1MN _glcd_state,25
                 _0x20200A0:
                +
000564 93e0 0188+STS _glcd_state + ( 27 ) , R30
000566 93f0 0189+STS _glcd_state + ( 27 ) + 1 , R31
                 	__PUTW1MN _glcd_state,27
000568 e2a1      	LDI  R26,LOW(33)
000569 df73      	RCALL _pcd8544_wrcmd
00056a 2fe1      	MOV  R30,R17
00056b 60e4      	ORI  R30,4
00056c 2fae      	MOV  R26,R30
00056d df6f      	RCALL _pcd8544_wrcmd
00056e 2fe0      	MOV  R30,R16
00056f 61e0      	ORI  R30,0x10
000570 2fae      	MOV  R26,R30
000571 df6b      	RCALL _pcd8544_wrcmd
000572 2fe3      	MOV  R30,R19
000573 68e0      	ORI  R30,0x80
000574 2fae      	MOV  R26,R30
000575 df67      	RCALL _pcd8544_wrcmd
000576 e2a0      	LDI  R26,LOW(32)
000577 df65      	RCALL _pcd8544_wrcmd
000578 e0a1      	LDI  R26,LOW(1)
000579 d01f      	RCALL _glcd_display
00057a e0e1      	LDI  R30,LOW(1)
00057b 93e0 016d 	STS  _glcd_state,R30
00057d e0e0      	LDI  R30,LOW(0)
                +
00057e 93e0 016e+STS _glcd_state + ( 1 ) , R30
                 	__PUTB1MN _glcd_state,1
000580 e0e1      	LDI  R30,LOW(1)
                +
000581 93e0 0173+STS _glcd_state + ( 6 ) , R30
                 	__PUTB1MN _glcd_state,6
                +
000583 93e0 0174+STS _glcd_state + ( 7 ) , R30
                 	__PUTB1MN _glcd_state,7
000585 940e 0e43 	CALL SUBOPT_0x22
000587 e0e1      	LDI  R30,LOW(1)
                +
000588 93e0 017d+STS _glcd_state + ( 16 ) , R30
                 	__PUTB1MN _glcd_state,16
                +
00058a e7ee     +LDI R30 , LOW ( _glcd_state + ( 17 ) )
00058b e0f1     +LDI R31 , HIGH ( _glcd_state + ( 17 ) )
                 	__POINTW1MN _glcd_state,17
00058c 93fa      	ST   -Y,R31
00058d 93ea      	ST   -Y,R30
00058e efef      	LDI  R30,LOW(255)
00058f 93ea      	ST   -Y,R30
000590 e0a8      	LDI  R26,LOW(8)
000591 e0b0      	LDI  R27,0
000592 940e 0ce5 	CALL _memset
000594 d00f      	RCALL _glcd_clear
000595 e0e1      	LDI  R30,LOW(1)
000596 940e 1182 	CALL __LOADLOCR4
000598 c09f      	RJMP _0x210000A
                 ; .FEND
                 _glcd_display:
                 ; .FSTART _glcd_display
000599 93aa      	ST   -Y,R26
00059a 81e8      	LD   R30,Y
00059b 30e0      	CPI  R30,0
00059c f011      	BREQ _0x202000A
00059d e0ec      	LDI  R30,LOW(12)
00059e c001      	RJMP _0x202000B
                 _0x202000A:
00059f e0e8      	LDI  R30,LOW(8)
                 _0x202000B:
0005a0 2fae      	MOV  R26,R30
0005a1 df3b      	RCALL _pcd8544_wrcmd
                 _0x210000E:
0005a2 9621      	ADIW R28,1
0005a3 9508      	RET
                 ; .FEND
                 _glcd_clear:
                 ; .FSTART _glcd_clear
0005a4 940e 117b 	CALL __SAVELOCR4
0005a6 e030      	LDI  R19,0
                +
0005a7 91e0 016e+LDS R30 , _glcd_state + ( 1 )
                 	__GETB1MN _glcd_state,1
0005a9 30e0      	CPI  R30,0
0005aa f009      	BREQ _0x202000D
0005ab ef3f      	LDI  R19,LOW(255)
                 _0x202000D:
0005ac e0e0      	LDI  R30,LOW(0)
0005ad 93ea      	ST   -Y,R30
0005ae e0a0      	LDI  R26,LOW(0)
0005af df4e      	RCALL _pcd8544_gotoxy
                +
0005b0 ef08     +LDI R16 , LOW ( 504 )
0005b1 e011     +LDI R17 , HIGH ( 504 )
                 	__GETWRN 16,17,504
                 _0x202000E:
0005b2 01f8      	MOVW R30,R16
                +
0005b3 5001     +SUBI R16 , LOW ( 1 )
0005b4 4010     +SBCI R17 , HIGH ( 1 )
                 	__SUBWRN 16,17,1
0005b5 9730      	SBIW R30,0
0005b6 f019      	BREQ _0x2020010
0005b7 2fa3      	MOV  R26,R19
0005b8 df5b      	RCALL _pcd8544_wrbyte
0005b9 cff8      	RJMP _0x202000E
                 _0x2020010:
0005ba e0e0      	LDI  R30,LOW(0)
0005bb 93ea      	ST   -Y,R30
0005bc e0a0      	LDI  R26,LOW(0)
0005bd d3b7      	RCALL _glcd_moveto
0005be 940e 1182 	CALL __LOADLOCR4
                 _0x210000D:
0005c0 9624      	ADIW R28,4
0005c1 9508      	RET
                 ; .FEND
                 _glcd_putpixel:
                 ; .FSTART _glcd_putpixel
0005c2 93aa      	ST   -Y,R26
0005c3 931a      	ST   -Y,R17
0005c4 930a      	ST   -Y,R16
0005c5 81ac      	LDD  R26,Y+4
0005c6 35a4      	CPI  R26,LOW(0x54)
0005c7 f418      	BRSH _0x2020012
0005c8 81ab      	LDD  R26,Y+3
0005c9 33a0      	CPI  R26,LOW(0x30)
0005ca f008      	BRLO _0x2020011
                 _0x2020012:
0005cb c015      	RJMP _0x210000C
                 _0x2020011:
0005cc 81ec      	LDD  R30,Y+4
0005cd 93ea      	ST   -Y,R30
0005ce 81ac      	LDD  R26,Y+4
0005cf df3b      	RCALL _pcd8544_rdbyte
0005d0 2f1e      	MOV  R17,R30
0005d1 81eb      	LDD  R30,Y+3
0005d2 70e7      	ANDI R30,LOW(0x7)
0005d3 e0a1      	LDI  R26,LOW(1)
0005d4 940e 10ce 	CALL __LSLB12
0005d6 2f0e      	MOV  R16,R30
0005d7 81ea      	LDD  R30,Y+2
0005d8 30e0      	CPI  R30,0
0005d9 f011      	BREQ _0x2020014
0005da 2b10      	OR   R17,R16
0005db c003      	RJMP _0x2020015
                 _0x2020014:
0005dc 2fe0      	MOV  R30,R16
0005dd 95e0      	COM  R30
0005de 231e      	AND  R17,R30
                 _0x2020015:
0005df 2fa1      	MOV  R26,R17
0005e0 df33      	RCALL _pcd8544_wrbyte
                 _0x210000C:
0005e1 8119      	LDD  R17,Y+1
0005e2 8108      	LDD  R16,Y+0
0005e3 9625      	ADIW R28,5
0005e4 9508      	RET
                 ; .FEND
                 _glcd_getpixel:
                 ; .FSTART _glcd_getpixel
0005e5 93aa      	ST   -Y,R26
0005e6 81a9      	LDD  R26,Y+1
0005e7 35a4      	CPI  R26,LOW(0x54)
0005e8 f418      	BRSH _0x2020017
0005e9 81a8      	LD   R26,Y
0005ea 33a0      	CPI  R26,LOW(0x30)
0005eb f010      	BRLO _0x2020016
                 _0x2020017:
0005ec e0e0      	LDI  R30,LOW(0)
0005ed c011      	RJMP _0x210000B
                 _0x2020016:
0005ee 81e9      	LDD  R30,Y+1
0005ef 93ea      	ST   -Y,R30
0005f0 81a9      	LDD  R26,Y+1
0005f1 def5      	RCALL _pcd8544_setaddr_G101
0005f2 940e 0e39 	CALL SUBOPT_0x20
0005f4 8010      	LD   R1,Z
0005f5 81e8      	LD   R30,Y
0005f6 70e7      	ANDI R30,LOW(0x7)
0005f7 e0a1      	LDI  R26,LOW(1)
0005f8 940e 10ce 	CALL __LSLB12
0005fa 21e1      	AND  R30,R1
0005fb f011      	BREQ _0x2020019
0005fc e0e1      	LDI  R30,LOW(1)
0005fd c001      	RJMP _0x202001A
                 _0x2020019:
0005fe e0e0      	LDI  R30,LOW(0)
                 _0x202001A:
                 _0x210000B:
0005ff 9622      	ADIW R28,2
000600 9508      	RET
                 ; .FEND
                 _pcd8544_wrmasked_G101:
                 ; .FSTART _pcd8544_wrmasked_G101
000601 93aa      	ST   -Y,R26
000602 931a      	ST   -Y,R17
000603 81ed      	LDD  R30,Y+5
000604 93ea      	ST   -Y,R30
000605 81ad      	LDD  R26,Y+5
000606 df04      	RCALL _pcd8544_rdbyte
000607 2f1e      	MOV  R17,R30
000608 81e9      	LDD  R30,Y+1
000609 30e7      	CPI  R30,LOW(0x7)
00060a f011      	BREQ _0x2020020
00060b 30e8      	CPI  R30,LOW(0x8)
00060c f439      	BRNE _0x2020021
                 _0x2020020:
00060d 81eb      	LDD  R30,Y+3
00060e 93ea      	ST   -Y,R30
00060f 81aa      	LDD  R26,Y+2
000610 940e 0d00 	CALL _glcd_mappixcolor1bit
000612 83eb      	STD  Y+3,R30
000613 c008      	RJMP _0x2020022
                 _0x2020021:
000614 30e3      	CPI  R30,LOW(0x3)
000615 f421      	BRNE _0x2020024
000616 81eb      	LDD  R30,Y+3
000617 95e0      	COM  R30
000618 83eb      	STD  Y+3,R30
000619 c002      	RJMP _0x2020025
                 _0x2020024:
00061a 30e0      	CPI  R30,0
00061b f421      	BRNE _0x2020026
                 _0x2020025:
                 _0x2020022:
00061c 81ea      	LDD  R30,Y+2
00061d 95e0      	COM  R30
00061e 231e      	AND  R17,R30
00061f c002      	RJMP _0x2020027
                 _0x2020026:
000620 30e2      	CPI  R30,LOW(0x2)
000621 f429      	BRNE _0x2020028
                 _0x2020027:
000622 81ea      	LDD  R30,Y+2
000623 81ab      	LDD  R26,Y+3
000624 23ea      	AND  R30,R26
000625 2b1e      	OR   R17,R30
000626 c00e      	RJMP _0x202001E
                 _0x2020028:
000627 30e1      	CPI  R30,LOW(0x1)
000628 f429      	BRNE _0x2020029
000629 81ea      	LDD  R30,Y+2
00062a 81ab      	LDD  R26,Y+3
00062b 23ea      	AND  R30,R26
00062c 271e      	EOR  R17,R30
00062d c007      	RJMP _0x202001E
                 _0x2020029:
00062e 30e4      	CPI  R30,LOW(0x4)
00062f f429      	BRNE _0x202001E
000630 81ea      	LDD  R30,Y+2
000631 95e0      	COM  R30
000632 81ab      	LDD  R26,Y+3
000633 2bea      	OR   R30,R26
000634 231e      	AND  R17,R30
                 _0x202001E:
000635 2fa1      	MOV  R26,R17
000636 dedd      	RCALL _pcd8544_wrbyte
000637 8118      	LDD  R17,Y+0
                 _0x210000A:
000638 9626      	ADIW R28,6
000639 9508      	RET
                 ; .FEND
                 _glcd_block:
                 ; .FSTART _glcd_block
00063a 93aa      	ST   -Y,R26
00063b 9723      	SBIW R28,3
00063c 940e 1179 	CALL __SAVELOCR6
00063e 89a8      	LDD  R26,Y+16
00063f 35a4      	CPI  R26,LOW(0x54)
000640 f448      	BRSH _0x202002C
000641 85af      	LDD  R26,Y+15
000642 33a0      	CPI  R26,LOW(0x30)
000643 f430      	BRSH _0x202002C
000644 85ae      	LDD  R26,Y+14
000645 30a0      	CPI  R26,LOW(0x0)
000646 f019      	BREQ _0x202002C
000647 85ad      	LDD  R26,Y+13
000648 30a0      	CPI  R26,LOW(0x0)
000649 f409      	BRNE _0x202002B
                 _0x202002C:
00064a c1d5      	RJMP _0x2100009
                 _0x202002B:
00064b 85ee      	LDD  R30,Y+14
00064c 87e8      	STD  Y+8,R30
00064d 89a8      	LDD  R26,Y+16
00064e 27bb      	CLR  R27
00064f 85ee      	LDD  R30,Y+14
000650 e0f0      	LDI  R31,0
000651 0fae      	ADD  R26,R30
000652 1fbf      	ADC  R27,R31
000653 35a5      	CPI  R26,LOW(0x55)
000654 e0e0      	LDI  R30,HIGH(0x55)
000655 07be      	CPC  R27,R30
000656 f020      	BRLO _0x202002E
000657 89a8      	LDD  R26,Y+16
000658 e5e4      	LDI  R30,LOW(84)
000659 1bea      	SUB  R30,R26
00065a 87ee      	STD  Y+14,R30
                 _0x202002E:
00065b 852d      	LDD  R18,Y+13
00065c 85af      	LDD  R26,Y+15
00065d 27bb      	CLR  R27
00065e 85ed      	LDD  R30,Y+13
00065f e0f0      	LDI  R31,0
000660 0fae      	ADD  R26,R30
000661 1fbf      	ADC  R27,R31
000662 97d1      	SBIW R26,49
000663 f020      	BRLO _0x202002F
000664 85af      	LDD  R26,Y+15
000665 e3e0      	LDI  R30,LOW(48)
000666 1bea      	SUB  R30,R26
000667 87ed      	STD  Y+13,R30
                 _0x202002F:
000668 85a9      	LDD  R26,Y+9
000669 30a6      	CPI  R26,LOW(0x6)
00066a f009      	BREQ PC+2
00066b c05b      	RJMP _0x2020030
00066c 85ec      	LDD  R30,Y+12
00066d 30e1      	CPI  R30,LOW(0x1)
00066e f409      	BRNE _0x2020034
00066f c1b0      	RJMP _0x2100009
                 _0x2020034:
000670 30e3      	CPI  R30,LOW(0x3)
000671 f439      	BRNE _0x2020037
                +
000672 91e0 0188+LDS R30 , _glcd_state + ( 27 )
000674 91f0 0189+LDS R31 , _glcd_state + ( 27 ) + 1
                 	__GETW1MN _glcd_state,27
000676 9730      	SBIW R30,0
000677 f409      	BRNE _0x2020036
000678 c1a7      	RJMP _0x2100009
                 _0x2020036:
                 _0x2020037:
000679 8508      	LDD  R16,Y+8
00067a 85ed      	LDD  R30,Y+13
00067b 95e6      	LSR  R30
00067c 95e6      	LSR  R30
00067d 95e6      	LSR  R30
00067e 2f3e      	MOV  R19,R30
00067f 2fe2      	MOV  R30,R18
000680 70e7      	ANDI R30,LOW(0x7)
000681 f419      	BRNE _0x2020039
000682 85ad      	LDD  R26,Y+13
000683 172a      	CP   R18,R26
000684 f0e9      	BREQ _0x2020038
                 _0x2020039:
000685 2fa0      	MOV  R26,R16
000686 27bb      	CLR  R27
000687 2fe3      	MOV  R30,R19
000688 e0f0      	LDI  R31,0
000689 940e 10e8 	CALL __MULW12U
00068b 85aa      	LDD  R26,Y+10
00068c 85bb      	LDD  R27,Y+10+1
00068d 940e 0e4a 	CALL SUBOPT_0x23
00068f 9526      	LSR  R18
000690 9526      	LSR  R18
000691 9526      	LSR  R18
000692 2f53      	MOV  R21,R19
                 _0x202003B:
000693 935f      	PUSH R21
000694 5f5f      	SUBI R21,-1
000695 2fe2      	MOV  R30,R18
000696 91af      	POP  R26
000697 17ea      	CP   R30,R26
000698 f048      	BRLO _0x202003D
000699 2f10      	MOV  R17,R16
                 _0x202003E:
00069a 2fe1      	MOV  R30,R17
00069b 5011      	SUBI R17,1
00069c 30e0      	CPI  R30,0
00069d f019      	BREQ _0x2020040
00069e 940e 0e4f 	CALL SUBOPT_0x24
0006a0 cff9      	RJMP _0x202003E
                 _0x2020040:
0006a1 cff1      	RJMP _0x202003B
                 _0x202003D:
                 _0x2020038:
0006a2 85ae      	LDD  R26,Y+14
0006a3 170a      	CP   R16,R26
0006a4 f111      	BREQ _0x2020041
0006a5 85ee      	LDD  R30,Y+14
0006a6 85aa      	LDD  R26,Y+10
0006a7 85bb      	LDD  R27,Y+10+1
0006a8 e0f0      	LDI  R31,0
0006a9 940e 0e4a 	CALL SUBOPT_0x23
0006ab 85ed      	LDD  R30,Y+13
0006ac 70e7      	ANDI R30,LOW(0x7)
0006ad f009      	BREQ _0x2020042
0006ae 5f3f      	SUBI R19,-LOW(1)
                 _0x2020042:
0006af e020      	LDI  R18,LOW(0)
                 _0x2020043:
0006b0 932f      	PUSH R18
0006b1 5f2f      	SUBI R18,-1
0006b2 2fe3      	MOV  R30,R19
0006b3 91af      	POP  R26
0006b4 17ae      	CP   R26,R30
0006b5 f488      	BRSH _0x2020045
0006b6 851e      	LDD  R17,Y+14
                 _0x2020046:
0006b7 931f      	PUSH R17
0006b8 5f1f      	SUBI R17,-1
0006b9 2fe0      	MOV  R30,R16
0006ba 91af      	POP  R26
0006bb 17ae      	CP   R26,R30
0006bc f418      	BRSH _0x2020048
0006bd 940e 0e4f 	CALL SUBOPT_0x24
0006bf cff7      	RJMP _0x2020046
                 _0x2020048:
0006c0 85ee      	LDD  R30,Y+14
0006c1 81ae      	LDD  R26,Y+6
0006c2 81bf      	LDD  R27,Y+6+1
0006c3 e0f0      	LDI  R31,0
0006c4 940e 0e4a 	CALL SUBOPT_0x23
0006c6 cfe9      	RJMP _0x2020043
                 _0x2020045:
                 _0x2020041:
                 _0x2020030:
0006c7 85ef      	LDD  R30,Y+15
0006c8 70e7      	ANDI R30,LOW(0x7)
0006c9 2f3e      	MOV  R19,R30
                 _0x2020049:
0006ca 85ed      	LDD  R30,Y+13
0006cb 30e0      	CPI  R30,0
0006cc f409      	BRNE PC+2
0006cd c152      	RJMP _0x202004B
0006ce 85ea      	LDD  R30,Y+10
0006cf 85fb      	LDD  R31,Y+10+1
0006d0 83ee      	STD  Y+6,R30
0006d1 83ff      	STD  Y+6+1,R31
0006d2 e010      	LDI  R17,LOW(0)
0006d3 8908      	LDD  R16,Y+16
0006d4 3030      	CPI  R19,0
0006d5 f009      	BREQ PC+2
0006d6 c066      	RJMP _0x202004C
0006d7 85ad      	LDD  R26,Y+13
0006d8 30a8      	CPI  R26,LOW(0x8)
0006d9 f408      	BRSH PC+2
0006da c05d      	RJMP _0x202004D
0006db 85e9      	LDD  R30,Y+9
0006dc 30e0      	CPI  R30,0
0006dd f011      	BREQ _0x2020052
0006de 30e3      	CPI  R30,LOW(0x3)
0006df f409      	BRNE _0x2020053
                 _0x2020052:
0006e0 c002      	RJMP _0x2020054
                 _0x2020053:
0006e1 30e7      	CPI  R30,LOW(0x7)
0006e2 f409      	BRNE _0x2020055
                 _0x2020054:
0006e3 c002      	RJMP _0x2020056
                 _0x2020055:
0006e4 30e8      	CPI  R30,LOW(0x8)
0006e5 f409      	BRNE _0x2020057
                 _0x2020056:
0006e6 c002      	RJMP _0x2020058
                 _0x2020057:
0006e7 30e9      	CPI  R30,LOW(0x9)
0006e8 f409      	BRNE _0x2020059
                 _0x2020058:
0006e9 c002      	RJMP _0x202005A
                 _0x2020059:
0006ea 30ea      	CPI  R30,LOW(0xA)
0006eb f421      	BRNE _0x202005B
                 _0x202005A:
0006ec 930a      	ST   -Y,R16
0006ed 89a8      	LDD  R26,Y+16
0006ee de0f      	RCALL _pcd8544_gotoxy
0006ef c004      	RJMP _0x2020050
                 _0x202005B:
0006f0 30e6      	CPI  R30,LOW(0x6)
0006f1 f411      	BRNE _0x2020050
0006f2 940e 0e5c 	CALL SUBOPT_0x25
                 _0x2020050:
                 _0x202005D:
0006f4 931f      	PUSH R17
0006f5 5f1f      	SUBI R17,-1
0006f6 85ee      	LDD  R30,Y+14
0006f7 91af      	POP  R26
0006f8 17ae      	CP   R26,R30
0006f9 f5b8      	BRSH _0x202005F
0006fa 85a9      	LDD  R26,Y+9
0006fb 30a6      	CPI  R26,LOW(0x6)
0006fc f469      	BRNE _0x2020060
0006fd 940e 0e60 	CALL SUBOPT_0x26
0006ff 93fa      	ST   -Y,R31
000700 93ea      	ST   -Y,R30
000701 940e 0e40 	CALL SUBOPT_0x21
000703 9731      	SBIW R30,1
000704 54e8      	SUBI R30,LOW(-_gfx_buffer_G101)
000705 4ffe      	SBCI R31,HIGH(-_gfx_buffer_G101)
000706 81a0      	LD   R26,Z
000707 940e 0d47 	CALL _glcd_writemem
000709 c026      	RJMP _0x2020061
                 _0x2020060:
00070a 85e9      	LDD  R30,Y+9
00070b 30e9      	CPI  R30,LOW(0x9)
00070c f411      	BRNE _0x2020065
00070d e050      	LDI  R21,LOW(0)
00070e c00e      	RJMP _0x2020066
                 _0x2020065:
00070f 30ea      	CPI  R30,LOW(0xA)
000710 f411      	BRNE _0x2020064
000711 ef5f      	LDI  R21,LOW(255)
000712 c00a      	RJMP _0x2020066
                 _0x2020064:
000713 940e 0e60 	CALL SUBOPT_0x26
000715 940e 0e69 	CALL SUBOPT_0x27
000717 2f5e      	MOV  R21,R30
000718 85e9      	LDD  R30,Y+9
000719 30e7      	CPI  R30,LOW(0x7)
00071a f011      	BREQ _0x202006D
00071b 30e8      	CPI  R30,LOW(0x8)
00071c f421      	BRNE _0x202006E
                 _0x202006D:
                 _0x2020066:
00071d 940e 0e6f 	CALL SUBOPT_0x28
00071f 2f5e      	MOV  R21,R30
000720 c006      	RJMP _0x202006F
                 _0x202006E:
000721 30e3      	CPI  R30,LOW(0x3)
000722 f411      	BRNE _0x2020071
000723 9550      	COM  R21
000724 c002      	RJMP _0x2020072
                 _0x2020071:
000725 30e0      	CPI  R30,0
000726 f419      	BRNE _0x2020074
                 _0x2020072:
                 _0x202006F:
000727 2fa5      	MOV  R26,R21
000728 ddb9      	RCALL _pcd8544_wrdata_G101
000729 c006      	RJMP _0x202006B
                 _0x2020074:
00072a 940e 0e73 	CALL SUBOPT_0x29
00072c efef      	LDI  R30,LOW(255)
00072d 93ea      	ST   -Y,R30
00072e 85ad      	LDD  R26,Y+13
00072f ded1      	RCALL _pcd8544_wrmasked_G101
                 _0x202006B:
                 _0x2020061:
000730 cfc3      	RJMP _0x202005D
                 _0x202005F:
000731 85ef      	LDD  R30,Y+15
000732 5fe8      	SUBI R30,-LOW(8)
000733 87ef      	STD  Y+15,R30
000734 85ed      	LDD  R30,Y+13
000735 50e8      	SUBI R30,LOW(8)
000736 87ed      	STD  Y+13,R30
000737 c0df      	RJMP _0x2020075
                 _0x202004D:
000738 855d      	LDD  R21,Y+13
000739 e020      	LDI  R18,LOW(0)
00073a e0e0      	LDI  R30,LOW(0)
00073b 87ed      	STD  Y+13,R30
00073c c081      	RJMP _0x2020076
                 _0x202004C:
00073d 2fe3      	MOV  R30,R19
00073e 85ad      	LDD  R26,Y+13
00073f 0fae      	ADD  R26,R30
000740 30a9      	CPI  R26,LOW(0x9)
000741 f420      	BRSH _0x2020077
000742 852d      	LDD  R18,Y+13
000743 e0e0      	LDI  R30,LOW(0)
000744 87ed      	STD  Y+13,R30
000745 c003      	RJMP _0x2020078
                 _0x2020077:
000746 e0e8      	LDI  R30,LOW(8)
000747 1be3      	SUB  R30,R19
000748 2f2e      	MOV  R18,R30
                 _0x2020078:
000749 933a      	ST   -Y,R19
00074a 2fa2      	MOV  R26,R18
00074b 940e 0cf5 	CALL _glcd_getmask
00074d 2f4e      	MOV  R20,R30
00074e 85e9      	LDD  R30,Y+9
00074f 30e6      	CPI  R30,LOW(0x6)
000750 f529      	BRNE _0x202007C
000751 940e 0e5c 	CALL SUBOPT_0x25
                 _0x202007D:
000753 931f      	PUSH R17
000754 5f1f      	SUBI R17,-1
000755 85ee      	LDD  R30,Y+14
000756 91af      	POP  R26
000757 17ae      	CP   R26,R30
000758 f4e0      	BRSH _0x202007F
000759 940e 0e40 	CALL SUBOPT_0x21
00075b 9731      	SBIW R30,1
00075c 54e8      	SUBI R30,LOW(-_gfx_buffer_G101)
00075d 4ffe      	SBCI R31,HIGH(-_gfx_buffer_G101)
00075e 81e0      	LD   R30,Z
00075f 23e4      	AND  R30,R20
000760 2fae      	MOV  R26,R30
000761 2fe3      	MOV  R30,R19
000762 940e 10d6 	CALL __LSRB12
000764 940e 0e79 	CALL SUBOPT_0x2A
000766 2fe3      	MOV  R30,R19
000767 2fa4      	MOV  R26,R20
000768 940e 10d6 	CALL __LSRB12
00076a 95e0      	COM  R30
00076b 21e1      	AND  R30,R1
00076c 2b5e      	OR   R21,R30
00076d 940e 0e60 	CALL SUBOPT_0x26
00076f 93fa      	ST   -Y,R31
000770 93ea      	ST   -Y,R30
000771 2fa5      	MOV  R26,R21
000772 940e 0d47 	CALL _glcd_writemem
000774 cfde      	RJMP _0x202007D
                 _0x202007F:
000775 c02c      	RJMP _0x202007B
                 _0x202007C:
000776 30e9      	CPI  R30,LOW(0x9)
000777 f411      	BRNE _0x2020080
000778 e050      	LDI  R21,LOW(0)
000779 c003      	RJMP _0x2020081
                 _0x2020080:
00077a 30ea      	CPI  R30,LOW(0xA)
00077b f4a9      	BRNE _0x2020087
00077c ef5f      	LDI  R21,LOW(255)
                 _0x2020081:
00077d 940e 0e6f 	CALL SUBOPT_0x28
00077f 2fae      	MOV  R26,R30
000780 2fe3      	MOV  R30,R19
000781 940e 10ce 	CALL __LSLB12
000783 2f5e      	MOV  R21,R30
                 _0x2020084:
000784 931f      	PUSH R17
000785 5f1f      	SUBI R17,-1
000786 85ee      	LDD  R30,Y+14
000787 91af      	POP  R26
000788 17ae      	CP   R26,R30
000789 f430      	BRSH _0x2020086
00078a 940e 0e73 	CALL SUBOPT_0x29
00078c 934a      	ST   -Y,R20
00078d e0a0      	LDI  R26,LOW(0)
00078e de72      	RCALL _pcd8544_wrmasked_G101
00078f cff4      	RJMP _0x2020084
                 _0x2020086:
000790 c011      	RJMP _0x202007B
                 _0x2020087:
                 _0x2020088:
000791 931f      	PUSH R17
000792 5f1f      	SUBI R17,-1
000793 85ee      	LDD  R30,Y+14
000794 91af      	POP  R26
000795 17ae      	CP   R26,R30
000796 f458      	BRSH _0x202008A
000797 940e 0e84 	CALL SUBOPT_0x2B
000799 2fae      	MOV  R26,R30
00079a 2fe3      	MOV  R30,R19
00079b 940e 10ce 	CALL __LSLB12
00079d 93ea      	ST   -Y,R30
00079e 934a      	ST   -Y,R20
00079f 85ad      	LDD  R26,Y+13
0007a0 de60      	RCALL _pcd8544_wrmasked_G101
0007a1 cfef      	RJMP _0x2020088
                 _0x202008A:
                 _0x202007B:
0007a2 85ed      	LDD  R30,Y+13
0007a3 30e0      	CPI  R30,0
0007a4 f409      	BRNE _0x202008B
0007a5 c07a      	RJMP _0x202004B
                 _0x202008B:
0007a6 85ad      	LDD  R26,Y+13
0007a7 30a8      	CPI  R26,LOW(0x8)
0007a8 f428      	BRSH _0x202008C
0007a9 85ed      	LDD  R30,Y+13
0007aa 1be2      	SUB  R30,R18
0007ab 2f5e      	MOV  R21,R30
0007ac e0e0      	LDI  R30,LOW(0)
0007ad c003      	RJMP _0x20200A1
                 _0x202008C:
0007ae 2f53      	MOV  R21,R19
0007af 85ed      	LDD  R30,Y+13
0007b0 50e8      	SUBI R30,LOW(8)
                 _0x20200A1:
0007b1 87ed      	STD  Y+13,R30
0007b2 e010      	LDI  R17,LOW(0)
0007b3 85ef      	LDD  R30,Y+15
0007b4 5fe8      	SUBI R30,-LOW(8)
0007b5 87ef      	STD  Y+15,R30
0007b6 e0e8      	LDI  R30,LOW(8)
0007b7 1be3      	SUB  R30,R19
0007b8 2f2e      	MOV  R18,R30
0007b9 8908      	LDD  R16,Y+16
0007ba 85ea      	LDD  R30,Y+10
0007bb 85fb      	LDD  R31,Y+10+1
0007bc 83ee      	STD  Y+6,R30
0007bd 83ff      	STD  Y+6+1,R31
                 _0x2020076:
0007be 2fe5      	MOV  R30,R21
0007bf e0f0      	LDI  R31,0
0007c0 5ce8      	SUBI R30,LOW(-__glcd_mask*2)
0007c1 4ffd      	SBCI R31,HIGH(-__glcd_mask*2)
0007c2 9144      	LPM  R20,Z
0007c3 85e9      	LDD  R30,Y+9
0007c4 30e6      	CPI  R30,LOW(0x6)
0007c5 f529      	BRNE _0x2020091
0007c6 940e 0e5c 	CALL SUBOPT_0x25
                 _0x2020092:
0007c8 931f      	PUSH R17
0007c9 5f1f      	SUBI R17,-1
0007ca 85ee      	LDD  R30,Y+14
0007cb 91af      	POP  R26
0007cc 17ae      	CP   R26,R30
0007cd f4e0      	BRSH _0x2020094
0007ce 940e 0e40 	CALL SUBOPT_0x21
0007d0 9731      	SBIW R30,1
0007d1 54e8      	SUBI R30,LOW(-_gfx_buffer_G101)
0007d2 4ffe      	SBCI R31,HIGH(-_gfx_buffer_G101)
0007d3 81e0      	LD   R30,Z
0007d4 23e4      	AND  R30,R20
0007d5 2fae      	MOV  R26,R30
0007d6 2fe2      	MOV  R30,R18
0007d7 940e 10ce 	CALL __LSLB12
0007d9 940e 0e79 	CALL SUBOPT_0x2A
0007db 2fe2      	MOV  R30,R18
0007dc 2fa4      	MOV  R26,R20
0007dd 940e 10ce 	CALL __LSLB12
0007df 95e0      	COM  R30
0007e0 21e1      	AND  R30,R1
0007e1 2b5e      	OR   R21,R30
0007e2 940e 0e60 	CALL SUBOPT_0x26
0007e4 93fa      	ST   -Y,R31
0007e5 93ea      	ST   -Y,R30
0007e6 2fa5      	MOV  R26,R21
0007e7 940e 0d47 	CALL _glcd_writemem
0007e9 cfde      	RJMP _0x2020092
                 _0x2020094:
0007ea c02c      	RJMP _0x2020090
                 _0x2020091:
0007eb 30e9      	CPI  R30,LOW(0x9)
0007ec f411      	BRNE _0x2020095
0007ed e050      	LDI  R21,LOW(0)
0007ee c003      	RJMP _0x2020096
                 _0x2020095:
0007ef 30ea      	CPI  R30,LOW(0xA)
0007f0 f4a9      	BRNE _0x202009C
0007f1 ef5f      	LDI  R21,LOW(255)
                 _0x2020096:
0007f2 940e 0e6f 	CALL SUBOPT_0x28
0007f4 2fae      	MOV  R26,R30
0007f5 2fe2      	MOV  R30,R18
0007f6 940e 10d6 	CALL __LSRB12
0007f8 2f5e      	MOV  R21,R30
                 _0x2020099:
0007f9 931f      	PUSH R17
0007fa 5f1f      	SUBI R17,-1
0007fb 85ee      	LDD  R30,Y+14
0007fc 91af      	POP  R26
0007fd 17ae      	CP   R26,R30
0007fe f430      	BRSH _0x202009B
0007ff 940e 0e73 	CALL SUBOPT_0x29
000801 934a      	ST   -Y,R20
000802 e0a0      	LDI  R26,LOW(0)
000803 ddfd      	RCALL _pcd8544_wrmasked_G101
000804 cff4      	RJMP _0x2020099
                 _0x202009B:
000805 c011      	RJMP _0x2020090
                 _0x202009C:
                 _0x202009D:
000806 931f      	PUSH R17
000807 5f1f      	SUBI R17,-1
000808 85ee      	LDD  R30,Y+14
000809 91af      	POP  R26
00080a 17ae      	CP   R26,R30
00080b f458      	BRSH _0x202009F
00080c 940e 0e84 	CALL SUBOPT_0x2B
00080e 2fae      	MOV  R26,R30
00080f 2fe2      	MOV  R30,R18
000810 940e 10d6 	CALL __LSRB12
000812 93ea      	ST   -Y,R30
000813 934a      	ST   -Y,R20
000814 85ad      	LDD  R26,Y+13
000815 ddeb      	RCALL _pcd8544_wrmasked_G101
000816 cfef      	RJMP _0x202009D
                 _0x202009F:
                 _0x2020090:
                 _0x2020075:
000817 85e8      	LDD  R30,Y+8
000818 85aa      	LDD  R26,Y+10
000819 85bb      	LDD  R27,Y+10+1
00081a e0f0      	LDI  R31,0
00081b 0fea      	ADD  R30,R26
00081c 1ffb      	ADC  R31,R27
00081d 87ea      	STD  Y+10,R30
00081e 87fb      	STD  Y+10+1,R31
00081f ceaa      	RJMP _0x2020049
                 _0x202004B:
                 _0x2100009:
000820 940e 1180 	CALL __LOADLOCR6
000822 9661      	ADIW R28,17
000823 9508      	RET
                 ; .FEND
                 
                 	.CSEG
                 _glcd_clipx:
                 ; .FSTART _glcd_clipx
000824 940e 0e91 	CALL SUBOPT_0x2C
000826 f024      	BRLT _0x2040003
000827 e0e0      	LDI  R30,LOW(0)
000828 e0f0      	LDI  R31,HIGH(0)
000829 940c 0cfe 	JMP  _0x2100002
                 _0x2040003:
00082b 81a8      	LD   R26,Y
00082c 81b9      	LDD  R27,Y+1
00082d 35a4      	CPI  R26,LOW(0x54)
00082e e0e0      	LDI  R30,HIGH(0x54)
00082f 07be      	CPC  R27,R30
000830 f024      	BRLT _0x2040004
000831 e5e3      	LDI  R30,LOW(83)
000832 e0f0      	LDI  R31,HIGH(83)
000833 940c 0cfe 	JMP  _0x2100002
                 _0x2040004:
000835 81e8      	LD   R30,Y
000836 81f9      	LDD  R31,Y+1
000837 940c 0cfe 	JMP  _0x2100002
                 ; .FEND
                 _glcd_clipy:
                 ; .FSTART _glcd_clipy
000839 940e 0e91 	CALL SUBOPT_0x2C
00083b f024      	BRLT _0x2040005
00083c e0e0      	LDI  R30,LOW(0)
00083d e0f0      	LDI  R31,HIGH(0)
00083e 940c 0cfe 	JMP  _0x2100002
                 _0x2040005:
000840 81a8      	LD   R26,Y
000841 81b9      	LDD  R27,Y+1
000842 97d0      	SBIW R26,48
000843 f024      	BRLT _0x2040006
000844 e2ef      	LDI  R30,LOW(47)
000845 e0f0      	LDI  R31,HIGH(47)
000846 940c 0cfe 	JMP  _0x2100002
                 _0x2040006:
000848 81e8      	LD   R30,Y
000849 81f9      	LDD  R31,Y+1
00084a 940c 0cfe 	JMP  _0x2100002
                 ; .FEND
                 _glcd_setpixel:
                 ; .FSTART _glcd_setpixel
00084c 93aa      	ST   -Y,R26
00084d 81e9      	LDD  R30,Y+1
00084e 93ea      	ST   -Y,R30
00084f 81e9      	LDD  R30,Y+1
000850 93ea      	ST   -Y,R30
000851 91a0 016d 	LDS  R26,_glcd_state
000853 dd6e      	RCALL _glcd_putpixel
000854 940c 0cfe 	JMP  _0x2100002
                 ; .FEND
                 _glcd_getcharw_G102:
                 ; .FSTART _glcd_getcharw_G102
000856 93ba      	ST   -Y,R27
000857 93aa      	ST   -Y,R26
000858 9723      	SBIW R28,3
000859 940e 0e98 	CALL SUBOPT_0x2D
00085b 018f      	MOVW R16,R30
00085c 2e00      	MOV  R0,R16
00085d 2a01      	OR   R0,R17
00085e f419      	BRNE _0x204000B
00085f e0e0      	LDI  R30,LOW(0)
000860 e0f0      	LDI  R31,HIGH(0)
000861 c05f      	RJMP _0x2100008
                 _0x204000B:
000862 940e 0e9f 	CALL SUBOPT_0x2E
000864 820f      	STD  Y+7,R0
000865 940e 0e9f 	CALL SUBOPT_0x2E
000867 820e      	STD  Y+6,R0
000868 940e 0e9f 	CALL SUBOPT_0x2E
00086a 8608      	STD  Y+8,R0
00086b 85eb      	LDD  R30,Y+11
00086c 85a8      	LDD  R26,Y+8
00086d 17ea      	CP   R30,R26
00086e f418      	BRSH _0x204000C
00086f e0e0      	LDI  R30,LOW(0)
000870 e0f0      	LDI  R31,HIGH(0)
000871 c04f      	RJMP _0x2100008
                 _0x204000C:
000872 01f8      	MOVW R30,R16
                +
000873 5f0f     +SUBI R16 , LOW ( - 1 )
000874 4f1f     +SBCI R17 , HIGH ( - 1 )
                 	__ADDWRN 16,17,1
000875 9154      	LPM  R21,Z
000876 85a8      	LDD  R26,Y+8
000877 27bb      	CLR  R27
000878 27ee      	CLR  R30
000879 0fa5      	ADD  R26,R21
00087a 1fbe      	ADC  R27,R30
00087b 85eb      	LDD  R30,Y+11
00087c e0f0      	LDI  R31,0
00087d 17ea      	CP   R30,R26
00087e 07fb      	CPC  R31,R27
00087f f018      	BRLO _0x204000D
000880 e0e0      	LDI  R30,LOW(0)
000881 e0f0      	LDI  R31,HIGH(0)
000882 c03e      	RJMP _0x2100008
                 _0x204000D:
000883 81ee      	LDD  R30,Y+6
000884 95e6      	LSR  R30
000885 95e6      	LSR  R30
000886 95e6      	LSR  R30
000887 2f4e      	MOV  R20,R30
000888 81ee      	LDD  R30,Y+6
000889 70e7      	ANDI R30,LOW(0x7)
00088a f009      	BREQ _0x204000E
00088b 5f4f      	SUBI R20,-LOW(1)
                 _0x204000E:
00088c 81ef      	LDD  R30,Y+7
00088d 30e0      	CPI  R30,0
00088e f0a1      	BREQ _0x204000F
00088f 85a9      	LDD  R26,Y+9
000890 85ba      	LDD  R27,Y+9+1
000891 93ec      	ST   X,R30
000892 85a8      	LDD  R26,Y+8
000893 85eb      	LDD  R30,Y+11
000894 1bea      	SUB  R30,R26
000895 e0f0      	LDI  R31,0
000896 01df      	MOVW R26,R30
000897 81ef      	LDD  R30,Y+7
000898 e0f0      	LDI  R31,0
000899 940e 10e8 	CALL __MULW12U
00089b 01df      	MOVW R26,R30
00089c 2fe4      	MOV  R30,R20
00089d e0f0      	LDI  R31,0
00089e 940e 10e8 	CALL __MULW12U
0008a0 0fe0      	ADD  R30,R16
0008a1 1ff1      	ADC  R31,R17
0008a2 c01e      	RJMP _0x2100008
                 _0x204000F:
0008a3 0198      	MOVW R18,R16
0008a4 2fe5      	MOV  R30,R21
0008a5 e0f0      	LDI  R31,0
                +
0008a6 0f0e     +ADD R16 , R30
0008a7 1f1f     +ADC R17 , R31
                 	__ADDWRR 16,17,30,31
                 _0x2040010:
0008a8 85a8      	LDD  R26,Y+8
0008a9 5faf      	SUBI R26,-LOW(1)
0008aa 87a8      	STD  Y+8,R26
0008ab 50a1      	SUBI R26,LOW(1)
0008ac 85eb      	LDD  R30,Y+11
0008ad 17ae      	CP   R26,R30
0008ae f460      	BRSH _0x2040012
0008af 01f9      	MOVW R30,R18
                +
0008b0 5f2f     +SUBI R18 , LOW ( - 1 )
0008b1 4f3f     +SBCI R19 , HIGH ( - 1 )
                 	__ADDWRN 18,19,1
0008b2 91a4      	LPM  R26,Z
0008b3 e0b0      	LDI  R27,0
0008b4 2fe4      	MOV  R30,R20
0008b5 e0f0      	LDI  R31,0
0008b6 940e 10e8 	CALL __MULW12U
                +
0008b8 0f0e     +ADD R16 , R30
0008b9 1f1f     +ADC R17 , R31
                 	__ADDWRR 16,17,30,31
0008ba cfed      	RJMP _0x2040010
                 _0x2040012:
0008bb 01f9      	MOVW R30,R18
0008bc 91e4      	LPM  R30,Z
0008bd 85a9      	LDD  R26,Y+9
0008be 85ba      	LDD  R27,Y+9+1
0008bf 93ec      	ST   X,R30
0008c0 01f8      	MOVW R30,R16
                 _0x2100008:
0008c1 940e 1180 	CALL __LOADLOCR6
0008c3 962c      	ADIW R28,12
0008c4 9508      	RET
                 ; .FEND
                 _glcd_new_line_G102:
                 ; .FSTART _glcd_new_line_G102
0008c5 e0e0      	LDI  R30,LOW(0)
                +
0008c6 93e0 016f+STS _glcd_state + ( 2 ) , R30
                 	__PUTB1MN _glcd_state,2
                +
0008c8 91a0 0170+LDS R26 , _glcd_state + ( 3 )
                 	__GETB2MN _glcd_state,3
0008ca 27bb      	CLR  R27
0008cb 940e 0ea4 	CALL SUBOPT_0x2F
0008cd e0f0      	LDI  R31,0
0008ce 0fae      	ADD  R26,R30
0008cf 1fbf      	ADC  R27,R31
                +
0008d0 91e0 0174+LDS R30 , _glcd_state + ( 7 )
                 	__GETB1MN _glcd_state,7
0008d2 e0f0      	LDI  R31,0
0008d3 0fae      	ADD  R26,R30
0008d4 1fbf      	ADC  R27,R31
0008d5 df63      	RCALL _glcd_clipy
                +
0008d6 93e0 0170+STS _glcd_state + ( 3 ) , R30
                 	__PUTB1MN _glcd_state,3
0008d8 9508      	RET
                 ; .FEND
                 _glcd_putchar:
                 ; .FSTART _glcd_putchar
0008d9 93aa      	ST   -Y,R26
0008da 9721      	SBIW R28,1
0008db 940e 0e98 	CALL SUBOPT_0x2D
0008dd 9730      	SBIW R30,0
0008de f409      	BRNE PC+2
0008df c057      	RJMP _0x204001F
0008e0 81af      	LDD  R26,Y+7
0008e1 30aa      	CPI  R26,LOW(0xA)
0008e2 f409      	BRNE _0x2040020
0008e3 c04f      	RJMP _0x2040021
                 _0x2040020:
0008e4 81ef      	LDD  R30,Y+7
0008e5 93ea      	ST   -Y,R30
0008e6 01de      	MOVW R26,R28
0008e7 9617      	ADIW R26,7
0008e8 df6d      	RCALL _glcd_getcharw_G102
0008e9 01af      	MOVW R20,R30
0008ea 9730      	SBIW R30,0
0008eb f419      	BRNE _0x2040022
0008ec 940e 1180 	CALL __LOADLOCR6
0008ee c36a      	RJMP _0x2100006
                 _0x2040022:
                +
0008ef 91e0 0173+LDS R30 , _glcd_state + ( 6 )
                 	__GETB1MN _glcd_state,6
0008f1 81ae      	LDD  R26,Y+6
0008f2 0fea      	ADD  R30,R26
0008f3 2f3e      	MOV  R19,R30
                +
0008f4 91a0 016f+LDS R26 , _glcd_state + ( 2 )
                 	__GETB2MN _glcd_state,2
0008f6 27bb      	CLR  R27
0008f7 940e 0eab 	CALL SUBOPT_0x30
                +
0008f9 3505     +CPI R16 , LOW ( 85 )
0008fa e0e0     +LDI R30 , HIGH ( 85 )
0008fb 071e     +CPC R17 , R30
                 	__CPWRN 16,17,85
0008fc f018      	BRLO _0x2040023
0008fd 2f03      	MOV  R16,R19
0008fe 2711      	CLR  R17
0008ff dfc5      	RCALL _glcd_new_line_G102
                 _0x2040023:
                +
000900 91e0 016f+LDS R30 , _glcd_state + ( 2 )
                 	__GETB1MN _glcd_state,2
000902 93ea      	ST   -Y,R30
                +
000903 91e0 0170+LDS R30 , _glcd_state + ( 3 )
                 	__GETB1MN _glcd_state,3
000905 93ea      	ST   -Y,R30
000906 85e8      	LDD  R30,Y+8
000907 93ea      	ST   -Y,R30
000908 940e 0ea4 	CALL SUBOPT_0x2F
00090a 93ea      	ST   -Y,R30
00090b e0e1      	LDI  R30,LOW(1)
00090c 93ea      	ST   -Y,R30
00090d 935a      	ST   -Y,R21
00090e 934a      	ST   -Y,R20
00090f e0a7      	LDI  R26,LOW(7)
000910 dd29      	RCALL _glcd_block
                +
000911 91e0 016f+LDS R30 , _glcd_state + ( 2 )
                 	__GETB1MN _glcd_state,2
000913 81ae      	LDD  R26,Y+6
000914 0fea      	ADD  R30,R26
000915 93ea      	ST   -Y,R30
                +
000916 91e0 0170+LDS R30 , _glcd_state + ( 3 )
                 	__GETB1MN _glcd_state,3
000918 93ea      	ST   -Y,R30
                +
000919 91e0 0173+LDS R30 , _glcd_state + ( 6 )
                 	__GETB1MN _glcd_state,6
00091b 93ea      	ST   -Y,R30
00091c 940e 0ea4 	CALL SUBOPT_0x2F
00091e 940e 0eb0 	CALL SUBOPT_0x31
                +
000920 91e0 016f+LDS R30 , _glcd_state + ( 2 )
                 	__GETB1MN _glcd_state,2
000922 93ea      	ST   -Y,R30
                +
000923 91a0 0170+LDS R26 , _glcd_state + ( 3 )
                 	__GETB2MN _glcd_state,3
000925 940e 0ea4 	CALL SUBOPT_0x2F
000927 0fea      	ADD  R30,R26
000928 93ea      	ST   -Y,R30
000929 933a      	ST   -Y,R19
                +
00092a 91e0 0174+LDS R30 , _glcd_state + ( 7 )
                 	__GETB1MN _glcd_state,7
00092c 940e 0eb0 	CALL SUBOPT_0x31
00092e e5e4      	LDI  R30,LOW(84)
00092f e0f0      	LDI  R31,HIGH(84)
000930 17e0      	CP   R30,R16
000931 07f1      	CPC  R31,R17
000932 f421      	BRNE _0x2040024
                 _0x2040021:
000933 df91      	RCALL _glcd_new_line_G102
000934 940e 1180 	CALL __LOADLOCR6
000936 c322      	RJMP _0x2100006
                 _0x2040024:
                 _0x204001F:
                +
000937 9300 016f+STS _glcd_state + ( 2 ) , R16
                 	__PUTBMRN _glcd_state,2,16
000939 940e 1180 	CALL __LOADLOCR6
00093b c31d      	RJMP _0x2100006
                 ; .FEND
                 _glcd_putcharxy:
                 ; .FSTART _glcd_putcharxy
00093c 93aa      	ST   -Y,R26
00093d 81ea      	LDD  R30,Y+2
00093e 93ea      	ST   -Y,R30
00093f 81aa      	LDD  R26,Y+2
000940 d034      	RCALL _glcd_moveto
000941 81a8      	LD   R26,Y
000942 df96      	RCALL _glcd_putchar
000943 940c 0d45 	JMP  _0x2100001
                 ; .FEND
                 _glcd_outtextxy:
                 ; .FSTART _glcd_outtextxy
000945 93ba      	ST   -Y,R27
000946 93aa      	ST   -Y,R26
000947 931a      	ST   -Y,R17
000948 81ec      	LDD  R30,Y+4
000949 93ea      	ST   -Y,R30
00094a 81ac      	LDD  R26,Y+4
00094b d029      	RCALL _glcd_moveto
                 _0x2040025:
00094c 81a9      	LDD  R26,Y+1
00094d 81ba      	LDD  R27,Y+1+1
00094e 91ed      	LD   R30,X+
00094f 83a9      	STD  Y+1,R26
000950 83ba      	STD  Y+1+1,R27
000951 2f1e      	MOV  R17,R30
000952 30e0      	CPI  R30,0
000953 f019      	BREQ _0x2040027
000954 2fa1      	MOV  R26,R17
000955 df83      	RCALL _glcd_putchar
000956 cff5      	RJMP _0x2040025
                 _0x2040027:
000957 8118      	LDD  R17,Y+0
000958 940c 0cf3 	JMP  _0x2100003
                 ; .FEND
                 _glcd_putpixelm_G102:
                 ; .FSTART _glcd_putpixelm_G102
00095a 93aa      	ST   -Y,R26
00095b 81ea      	LDD  R30,Y+2
00095c 93ea      	ST   -Y,R30
00095d 81ea      	LDD  R30,Y+2
00095e 93ea      	ST   -Y,R30
                +
00095f 91e0 0176+LDS R30 , _glcd_state + ( 9 )
                 	__GETB1MN _glcd_state,9
000961 81aa      	LDD  R26,Y+2
000962 23ea      	AND  R30,R26
000963 f019      	BREQ _0x204003E
000964 91e0 016d 	LDS  R30,_glcd_state
000966 c002      	RJMP _0x204003F
                 _0x204003E:
                +
000967 91e0 016e+LDS R30 , _glcd_state + ( 1 )
                 	__GETB1MN _glcd_state,1
                 _0x204003F:
000969 2fae      	MOV  R26,R30
00096a dc57      	RCALL _glcd_putpixel
00096b 81e8      	LD   R30,Y
00096c 0fee      	LSL  R30
00096d 83e8      	ST   Y,R30
00096e 30e0      	CPI  R30,0
00096f f411      	BRNE _0x2040041
000970 e0e1      	LDI  R30,LOW(1)
000971 83e8      	ST   Y,R30
                 _0x2040041:
000972 81e8      	LD   R30,Y
000973 940c 0d45 	JMP  _0x2100001
                 ; .FEND
                 _glcd_moveto:
                 ; .FSTART _glcd_moveto
000975 93aa      	ST   -Y,R26
000976 81a9      	LDD  R26,Y+1
000977 27bb      	CLR  R27
000978 deab      	RCALL _glcd_clipx
                +
000979 93e0 016f+STS _glcd_state + ( 2 ) , R30
                 	__PUTB1MN _glcd_state,2
00097b 81a8      	LD   R26,Y
00097c 27bb      	CLR  R27
00097d debb      	RCALL _glcd_clipy
                +
00097e 93e0 0170+STS _glcd_state + ( 3 ) , R30
                 	__PUTB1MN _glcd_state,3
000980 940c 0cfe 	JMP  _0x2100002
                 ; .FEND
                 _glcd_line:
                 ; .FSTART _glcd_line
000982 93aa      	ST   -Y,R26
000983 972b      	SBIW R28,11
000984 940e 1179 	CALL __SAVELOCR6
000986 89ac      	LDD  R26,Y+20
000987 27bb      	CLR  R27
000988 de9b      	RCALL _glcd_clipx
000989 8bec      	STD  Y+20,R30
00098a 89aa      	LDD  R26,Y+18
00098b 27bb      	CLR  R27
00098c de97      	RCALL _glcd_clipx
00098d 8bea      	STD  Y+18,R30
00098e 89ab      	LDD  R26,Y+19
00098f 27bb      	CLR  R27
000990 dea8      	RCALL _glcd_clipy
000991 8beb      	STD  Y+19,R30
000992 89a9      	LDD  R26,Y+17
000993 27bb      	CLR  R27
000994 dea4      	RCALL _glcd_clipy
000995 8be9      	STD  Y+17,R30
000996 89ea      	LDD  R30,Y+18
                +
000997 93e0 016f+STS _glcd_state + ( 2 ) , R30
                 	__PUTB1MN _glcd_state,2
000999 89e9      	LDD  R30,Y+17
                +
00099a 93e0 0170+STS _glcd_state + ( 3 ) , R30
                 	__PUTB1MN _glcd_state,3
00099c e0e1      	LDI  R30,LOW(1)
00099d 87e8      	STD  Y+8,R30
00099e 89e9      	LDD  R30,Y+17
00099f 89ab      	LDD  R26,Y+19
0009a0 17ea      	CP   R30,R26
0009a1 f571      	BRNE _0x2040042
0009a2 891c      	LDD  R17,Y+20
0009a3 89aa      	LDD  R26,Y+18
0009a4 171a      	CP   R17,R26
0009a5 f431      	BRNE _0x2040043
0009a6 931a      	ST   -Y,R17
0009a7 89ec      	LDD  R30,Y+20
0009a8 93ea      	ST   -Y,R30
0009a9 e0a1      	LDI  R26,LOW(1)
0009aa dfaf      	RCALL _glcd_putpixelm_G102
0009ab c0c8      	RJMP _0x2100007
                 _0x2040043:
0009ac 89aa      	LDD  R26,Y+18
0009ad 171a      	CP   R17,R26
0009ae f430      	BRSH _0x2040044
0009af 89ea      	LDD  R30,Y+18
0009b0 1be1      	SUB  R30,R17
0009b1 2f0e      	MOV  R16,R30
                +
0009b2 e041     +LDI R20 , LOW ( 1 )
0009b3 e050     +LDI R21 , HIGH ( 1 )
                 	__GETWRN 20,21,1
0009b4 c006      	RJMP _0x2040045
                 _0x2040044:
0009b5 89aa      	LDD  R26,Y+18
0009b6 2fe1      	MOV  R30,R17
0009b7 1bea      	SUB  R30,R26
0009b8 2f0e      	MOV  R16,R30
                +
0009b9 ef4f     +LDI R20 , LOW ( - 1 )
0009ba ef5f     +LDI R21 , HIGH ( - 1 )
                 	__GETWRN 20,21,-1
                 _0x2040045:
                 _0x2040047:
0009bb 893b      	LDD  R19,Y+19
0009bc e0e0      	LDI  R30,LOW(0)
0009bd 83ee      	STD  Y+6,R30
                 _0x2040049:
0009be 940e 0eba 	CALL SUBOPT_0x32
0009c0 f438      	BRSH _0x204004B
0009c1 931a      	ST   -Y,R17
0009c2 933a      	ST   -Y,R19
0009c3 9533      	INC  R19
0009c4 85aa      	LDD  R26,Y+10
0009c5 df94      	RCALL _glcd_putpixelm_G102
0009c6 83ef      	STD  Y+7,R30
0009c7 cff6      	RJMP _0x2040049
                 _0x204004B:
0009c8 81ef      	LDD  R30,Y+7
0009c9 87e8      	STD  Y+8,R30
0009ca 0f14      	ADD  R17,R20
0009cb 2fe0      	MOV  R30,R16
0009cc 5001      	SUBI R16,1
0009cd 30e0      	CPI  R30,0
0009ce f761      	BRNE _0x2040047
0009cf c0a4      	RJMP _0x204004C
                 _0x2040042:
0009d0 89ea      	LDD  R30,Y+18
0009d1 89ac      	LDD  R26,Y+20
0009d2 17ea      	CP   R30,R26
0009d3 f539      	BRNE _0x204004D
0009d4 893b      	LDD  R19,Y+19
0009d5 89a9      	LDD  R26,Y+17
0009d6 173a      	CP   R19,R26
0009d7 f430      	BRSH _0x204004E
0009d8 89e9      	LDD  R30,Y+17
0009d9 1be3      	SUB  R30,R19
0009da 2f2e      	MOV  R18,R30
0009db e0e1      	LDI  R30,LOW(1)
0009dc e0f0      	LDI  R31,HIGH(1)
0009dd c006      	RJMP _0x204011B
                 _0x204004E:
0009de 89a9      	LDD  R26,Y+17
0009df 2fe3      	MOV  R30,R19
0009e0 1bea      	SUB  R30,R26
0009e1 2f2e      	MOV  R18,R30
0009e2 efef      	LDI  R30,LOW(65535)
0009e3 efff      	LDI  R31,HIGH(65535)
                 _0x204011B:
0009e4 87ed      	STD  Y+13,R30
0009e5 87fe      	STD  Y+13+1,R31
                 _0x2040051:
0009e6 891c      	LDD  R17,Y+20
0009e7 e0e0      	LDI  R30,LOW(0)
0009e8 83ee      	STD  Y+6,R30
                 _0x2040053:
0009e9 940e 0eba 	CALL SUBOPT_0x32
0009eb f430      	BRSH _0x2040055
0009ec 931a      	ST   -Y,R17
0009ed 9513      	INC  R17
0009ee 940e 0ec2 	CALL SUBOPT_0x33
0009f0 83ef      	STD  Y+7,R30
0009f1 cff7      	RJMP _0x2040053
                 _0x2040055:
0009f2 81ef      	LDD  R30,Y+7
0009f3 87e8      	STD  Y+8,R30
0009f4 85ed      	LDD  R30,Y+13
0009f5 0f3e      	ADD  R19,R30
0009f6 2fe2      	MOV  R30,R18
0009f7 5021      	SUBI R18,1
0009f8 30e0      	CPI  R30,0
0009f9 f761      	BRNE _0x2040051
0009fa c079      	RJMP _0x2040056
                 _0x204004D:
0009fb e0e0      	LDI  R30,LOW(0)
0009fc 83ee      	STD  Y+6,R30
                 _0x2040057:
0009fd 940e 0eba 	CALL SUBOPT_0x32
0009ff f008      	BRLO PC+2
000a00 c073      	RJMP _0x2040059
000a01 891c      	LDD  R17,Y+20
000a02 893b      	LDD  R19,Y+19
000a03 e0e1      	LDI  R30,LOW(1)
000a04 2f2e      	MOV  R18,R30
000a05 2f0e      	MOV  R16,R30
000a06 89aa      	LDD  R26,Y+18
000a07 27bb      	CLR  R27
000a08 89ec      	LDD  R30,Y+20
000a09 e0f0      	LDI  R31,0
000a0a 1bae      	SUB  R26,R30
000a0b 0bbf      	SBC  R27,R31
000a0c 01ad      	MOVW R20,R26
000a0d 2355      	TST  R21
000a0e f42a      	BRPL _0x204005A
000a0f ef0f      	LDI  R16,LOW(255)
000a10 01fa      	MOVW R30,R20
000a11 940e 10c2 	CALL __ANEGW1
000a13 01af      	MOVW R20,R30
                 _0x204005A:
000a14 01fa      	MOVW R30,R20
000a15 0fee      	LSL  R30
000a16 1fff      	ROL  R31
000a17 87ef      	STD  Y+15,R30
000a18 8bf8      	STD  Y+15+1,R31
000a19 89a9      	LDD  R26,Y+17
000a1a 27bb      	CLR  R27
000a1b 89eb      	LDD  R30,Y+19
000a1c e0f0      	LDI  R31,0
000a1d 1bae      	SUB  R26,R30
000a1e 0bbf      	SBC  R27,R31
000a1f 87ad      	STD  Y+13,R26
000a20 87be      	STD  Y+13+1,R27
000a21 85ae      	LDD  R26,Y+14
000a22 23aa      	TST  R26
000a23 f43a      	BRPL _0x204005B
000a24 ef2f      	LDI  R18,LOW(255)
000a25 85ed      	LDD  R30,Y+13
000a26 85fe      	LDD  R31,Y+13+1
000a27 940e 10c2 	CALL __ANEGW1
000a29 87ed      	STD  Y+13,R30
000a2a 87fe      	STD  Y+13+1,R31
                 _0x204005B:
000a2b 85ed      	LDD  R30,Y+13
000a2c 85fe      	LDD  R31,Y+13+1
000a2d 0fee      	LSL  R30
000a2e 1fff      	ROL  R31
000a2f 87eb      	STD  Y+11,R30
000a30 87fc      	STD  Y+11+1,R31
000a31 931a      	ST   -Y,R17
000a32 933a      	ST   -Y,R19
000a33 e0a1      	LDI  R26,LOW(1)
000a34 df25      	RCALL _glcd_putpixelm_G102
000a35 87e8      	STD  Y+8,R30
000a36 e0e0      	LDI  R30,LOW(0)
000a37 87e9      	STD  Y+9,R30
000a38 87ea      	STD  Y+9+1,R30
000a39 85ad      	LDD  R26,Y+13
000a3a 85be      	LDD  R27,Y+13+1
000a3b 174a      	CP   R20,R26
000a3c 075b      	CPC  R21,R27
000a3d f0bc      	BRLT _0x204005C
                 _0x204005E:
000a3e 0f10      	ADD  R17,R16
000a3f 85eb      	LDD  R30,Y+11
000a40 85fc      	LDD  R31,Y+11+1
000a41 940e 0ec6 	CALL SUBOPT_0x34
000a43 85a9      	LDD  R26,Y+9
000a44 85ba      	LDD  R27,Y+9+1
000a45 174a      	CP   R20,R26
000a46 075b      	CPC  R21,R27
000a47 f42c      	BRGE _0x2040060
000a48 0f32      	ADD  R19,R18
000a49 85af      	LDD  R26,Y+15
000a4a 89b8      	LDD  R27,Y+15+1
000a4b 940e 0ecd 	CALL SUBOPT_0x35
                 _0x2040060:
000a4d 931a      	ST   -Y,R17
000a4e 940e 0ec2 	CALL SUBOPT_0x33
000a50 87e8      	STD  Y+8,R30
000a51 89ea      	LDD  R30,Y+18
000a52 17e1      	CP   R30,R17
000a53 f751      	BRNE _0x204005E
000a54 c018      	RJMP _0x2040061
                 _0x204005C:
                 _0x2040063:
000a55 0f32      	ADD  R19,R18
000a56 85ef      	LDD  R30,Y+15
000a57 89f8      	LDD  R31,Y+15+1
000a58 940e 0ec6 	CALL SUBOPT_0x34
000a5a 85ed      	LDD  R30,Y+13
000a5b 85fe      	LDD  R31,Y+13+1
000a5c 85a9      	LDD  R26,Y+9
000a5d 85ba      	LDD  R27,Y+9+1
000a5e 17ea      	CP   R30,R26
000a5f 07fb      	CPC  R31,R27
000a60 f42c      	BRGE _0x2040065
000a61 0f10      	ADD  R17,R16
000a62 85ab      	LDD  R26,Y+11
000a63 85bc      	LDD  R27,Y+11+1
000a64 940e 0ecd 	CALL SUBOPT_0x35
                 _0x2040065:
000a66 931a      	ST   -Y,R17
000a67 940e 0ec2 	CALL SUBOPT_0x33
000a69 87e8      	STD  Y+8,R30
000a6a 89e9      	LDD  R30,Y+17
000a6b 17e3      	CP   R30,R19
000a6c f741      	BRNE _0x2040063
                 _0x2040061:
000a6d 89eb      	LDD  R30,Y+19
000a6e 5fef      	SUBI R30,-LOW(1)
000a6f 8beb      	STD  Y+19,R30
000a70 89e9      	LDD  R30,Y+17
000a71 5fef      	SUBI R30,-LOW(1)
000a72 8be9      	STD  Y+17,R30
000a73 cf89      	RJMP _0x2040057
                 _0x2040059:
                 _0x2040056:
                 _0x204004C:
                 _0x2100007:
000a74 940e 1180 	CALL __LOADLOCR6
000a76 9665      	ADIW R28,21
000a77 9508      	RET
                 ; .FEND
                 _glcd_corners_G102:
                 ; .FSTART _glcd_corners_G102
000a78 93ba      	ST   -Y,R27
000a79 93aa      	ST   -Y,R26
000a7a 940e 1179 	CALL __SAVELOCR6
000a7c 81ee      	LDD  R30,Y+6
000a7d 81ff      	LDD  R31,Y+6+1
000a7e 8113      	LDD  R17,Z+3
000a7f 8101      	LDD  R16,Z+1
000a80 8132      	LDD  R19,Z+2
000a81 81ae      	LDD  R26,Y+6
000a82 81bf      	LDD  R27,Y+6+1
000a83 912c      	LD   R18,X
000a84 1701      	CP   R16,R17
000a85 f418      	BRSH _0x2040066
000a86 2f50      	MOV  R21,R16
000a87 2f01      	MOV  R16,R17
000a88 2f15      	MOV  R17,R21
                 _0x2040066:
000a89 1723      	CP   R18,R19
000a8a f418      	BRSH _0x2040067
000a8b 2f52      	MOV  R21,R18
000a8c 2f23      	MOV  R18,R19
000a8d 2f35      	MOV  R19,R21
                 _0x2040067:
000a8e 2fe1      	MOV  R30,R17
                +
000a8f 81ae     +LDD R26 , Y + 6
000a90 81bf     +LDD R27 , Y + 6 + 1
000a91 9613     +ADIW R26 , 3
000a92 93ec     +ST X , R30
                 	__PUTB1SNS 6,3
000a93 2fe3      	MOV  R30,R19
                +
000a94 81ae     +LDD R26 , Y + 6
000a95 81bf     +LDD R27 , Y + 6 + 1
000a96 9612     +ADIW R26 , 2
000a97 93ec     +ST X , R30
                 	__PUTB1SNS 6,2
000a98 2fe0      	MOV  R30,R16
                +
000a99 81ae     +LDD R26 , Y + 6
000a9a 81bf     +LDD R27 , Y + 6 + 1
000a9b 9611     +ADIW R26 , 1
000a9c 93ec     +ST X , R30
                 	__PUTB1SNS 6,1
000a9d 81ae      	LDD  R26,Y+6
000a9e 81bf      	LDD  R27,Y+6+1
000a9f 932c      	ST   X,R18
000aa0 940e 1180 	CALL __LOADLOCR6
000aa2 c1b6      	RJMP _0x2100006
                 ; .FEND
                 _glcd_rectangle:
                 ; .FSTART _glcd_rectangle
000aa3 93aa      	ST   -Y,R26
000aa4 940e 117b 	CALL __SAVELOCR4
                +
000aa6 91e0 0175+LDS R30 , _glcd_state + ( 8 )
                 	__GETB1MN _glcd_state,8
000aa8 50e1      	SUBI R30,LOW(1)
000aa9 2f3e      	MOV  R19,R30
000aaa 01de      	MOVW R26,R28
000aab 9614      	ADIW R26,4
000aac dfcb      	RCALL _glcd_corners_G102
000aad 81ed      	LDD  R30,Y+5
000aae 1be3      	SUB  R30,R19
000aaf 2f1e      	MOV  R17,R30
000ab0 81ec      	LDD  R30,Y+4
000ab1 1be3      	SUB  R30,R19
000ab2 2f0e      	MOV  R16,R30
000ab3 81ef      	LDD  R30,Y+7
000ab4 93ea      	ST   -Y,R30
000ab5 81ef      	LDD  R30,Y+7
000ab6 93ea      	ST   -Y,R30
000ab7 931a      	ST   -Y,R17
000ab8 85a9      	LDD  R26,Y+9
000ab9 dec8      	RCALL _glcd_line
000aba 931a      	ST   -Y,R17
000abb 81ef      	LDD  R30,Y+7
000abc 93ea      	ST   -Y,R30
000abd 931a      	ST   -Y,R17
000abe 2fa0      	MOV  R26,R16
000abf dec2      	RCALL _glcd_line
000ac0 81ed      	LDD  R30,Y+5
000ac1 93ea      	ST   -Y,R30
000ac2 930a      	ST   -Y,R16
000ac3 2fe3      	MOV  R30,R19
000ac4 85a9      	LDD  R26,Y+9
000ac5 0fea      	ADD  R30,R26
000ac6 93ea      	ST   -Y,R30
000ac7 2fa0      	MOV  R26,R16
000ac8 deb9      	RCALL _glcd_line
000ac9 81ef      	LDD  R30,Y+7
000aca 93ea      	ST   -Y,R30
000acb 81ed      	LDD  R30,Y+5
000acc 93ea      	ST   -Y,R30
000acd 85e9      	LDD  R30,Y+9
000ace 93ea      	ST   -Y,R30
000acf 2fe3      	MOV  R30,R19
000ad0 85a9      	LDD  R26,Y+9
000ad1 0fae      	ADD  R26,R30
000ad2 c183      	RJMP _0x2100005
                 ; .FEND
                 _glcd_plot8_G102:
                 ; .FSTART _glcd_plot8_G102
000ad3 93ba      	ST   -Y,R27
000ad4 93aa      	ST   -Y,R26
000ad5 9723      	SBIW R28,3
000ad6 940e 1179 	CALL __SAVELOCR6
000ad8 85ed      	LDD  R30,Y+13
000ad9 87e8      	STD  Y+8,R30
                +
000ada 91e0 0175+LDS R30 , _glcd_state + ( 8 )
                 	__GETB1MN _glcd_state,8
000adc 83ef      	STD  Y+7,R30
000add 91e0 016d 	LDS  R30,_glcd_state
000adf 83ee      	STD  Y+6,R30
000ae0 89aa      	LDD  R26,Y+18
000ae1 27bb      	CLR  R27
000ae2 85ef      	LDD  R30,Y+15
000ae3 940e 0eab 	CALL SUBOPT_0x30
000ae5 89a9      	LDD  R26,Y+17
000ae6 27bb      	CLR  R27
000ae7 89e8      	LDD  R30,Y+16
000ae8 940e 0ed4 	CALL SUBOPT_0x36
000aea 89e8      	LDD  R30,Y+16
000aeb 940e 0edb 	CALL SUBOPT_0x37
000aed f071      	BREQ _0x2040073
000aee 85e8      	LDD  R30,Y+8
000aef 78e0      	ANDI R30,LOW(0x80)
000af0 f4f1      	BRNE _0x2040075
000af1 85ad      	LDD  R26,Y+13
000af2 85be      	LDD  R27,Y+13+1
000af3 e5ea      	LDI  R30,LOW(90)
000af4 e0f0      	LDI  R31,HIGH(90)
000af5 940e 0ee3 	CALL SUBOPT_0x38
000af7 f01c      	BRLT _0x2040077
000af8 940e 0eec 	CALL SUBOPT_0x39
000afa f40c      	BRGE _0x2040078
                 _0x2040077:
000afb c013      	RJMP _0x2040076
                 _0x2040078:
                 _0x2040073:
000afc 2333      	TST  R19
000afd f012      	BRMI _0x2040079
000afe 940e 0ef1 	CALL SUBOPT_0x3A
                 _0x2040079:
000b00 81af      	LDD  R26,Y+7
000b01 30a2      	CPI  R26,LOW(0x2)
000b02 f020      	BRLO _0x204007B
                +
000b03 3022     +CPI R18 , LOW ( 2 )
000b04 e0e0     +LDI R30 , HIGH ( 2 )
000b05 073e     +CPC R19 , R30
                 	__CPWRN 18,19,2
000b06 f40c      	BRGE _0x204007C
                 _0x204007B:
000b07 c007      	RJMP _0x204007A
                 _0x204007C:
000b08 940e 0ef5 	CALL SUBOPT_0x3B
000b0a f421      	BRNE _0x204007D
000b0b 930a      	ST   -Y,R16
000b0c 2fa2      	MOV  R26,R18
000b0d 50a1      	SUBI R26,LOW(1)
000b0e dd3d      	RCALL _glcd_setpixel
                 _0x204007D:
                 _0x204007A:
                 _0x2040076:
                 _0x2040075:
000b0f 85e8      	LDD  R30,Y+8
000b10 78e8      	ANDI R30,LOW(0x88)
000b11 38e8      	CPI  R30,LOW(0x88)
000b12 f091      	BREQ _0x204007F
000b13 85e8      	LDD  R30,Y+8
000b14 78e0      	ANDI R30,LOW(0x80)
000b15 f4c9      	BRNE _0x2040081
000b16 85ad      	LDD  R26,Y+13
000b17 85be      	LDD  R27,Y+13+1
000b18 5fa2      	SUBI R26,LOW(-270)
000b19 4fbe      	SBCI R27,HIGH(-270)
000b1a 940e 0efe 	CALL SUBOPT_0x3C
000b1c f03c      	BRLT _0x2040083
000b1d 85ad      	LDD  R26,Y+13
000b1e 85be      	LDD  R27,Y+13+1
000b1f 5fa2      	SUBI R26,LOW(-270)
000b20 4fbe      	SBCI R27,HIGH(-270)
000b21 940e 0f03 	CALL SUBOPT_0x3D
000b23 f40c      	BRGE _0x2040084
                 _0x2040083:
000b24 c00a      	RJMP _0x2040082
                 _0x2040084:
                 _0x204007F:
000b25 940e 0f08 	CALL SUBOPT_0x3E
000b27 f038      	BRLO _0x2040085
000b28 940e 0f0f 	CALL SUBOPT_0x3F
000b2a f421      	BRNE _0x2040086
000b2b 930a      	ST   -Y,R16
000b2c 2fa4      	MOV  R26,R20
000b2d 5faf      	SUBI R26,-LOW(1)
000b2e dd1d      	RCALL _glcd_setpixel
                 _0x2040086:
                 _0x2040085:
                 _0x2040082:
                 _0x2040081:
000b2f 89aa      	LDD  R26,Y+18
000b30 27bb      	CLR  R27
000b31 85ef      	LDD  R30,Y+15
000b32 e0f0      	LDI  R31,0
000b33 1bae      	SUB  R26,R30
000b34 0bbf      	SBC  R27,R31
000b35 018d      	MOVW R16,R26
000b36 2311      	TST  R17
000b37 f40a      	BRPL PC+2
000b38 c045      	RJMP _0x2040087
000b39 85e8      	LDD  R30,Y+8
000b3a 78e2      	ANDI R30,LOW(0x82)
000b3b 38e2      	CPI  R30,LOW(0x82)
000b3c f091      	BREQ _0x2040089
000b3d 85e8      	LDD  R30,Y+8
000b3e 78e0      	ANDI R30,LOW(0x80)
000b3f f511      	BRNE _0x204008B
000b40 85ad      	LDD  R26,Y+13
000b41 85be      	LDD  R27,Y+13+1
000b42 5aa6      	SUBI R26,LOW(-90)
000b43 4fbf      	SBCI R27,HIGH(-90)
000b44 940e 0efe 	CALL SUBOPT_0x3C
000b46 f03c      	BRLT _0x204008D
000b47 85ad      	LDD  R26,Y+13
000b48 85be      	LDD  R27,Y+13+1
000b49 5aa6      	SUBI R26,LOW(-90)
000b4a 4fbf      	SBCI R27,HIGH(-90)
000b4b 940e 0f03 	CALL SUBOPT_0x3D
000b4d f40c      	BRGE _0x204008E
                 _0x204008D:
000b4e c013      	RJMP _0x204008C
                 _0x204008E:
                 _0x2040089:
000b4f 2333      	TST  R19
000b50 f012      	BRMI _0x204008F
000b51 940e 0ef1 	CALL SUBOPT_0x3A
                 _0x204008F:
000b53 81af      	LDD  R26,Y+7
000b54 30a2      	CPI  R26,LOW(0x2)
000b55 f020      	BRLO _0x2040091
                +
000b56 3022     +CPI R18 , LOW ( 2 )
000b57 e0e0     +LDI R30 , HIGH ( 2 )
000b58 073e     +CPC R19 , R30
                 	__CPWRN 18,19,2
000b59 f40c      	BRGE _0x2040092
                 _0x2040091:
000b5a c007      	RJMP _0x2040090
                 _0x2040092:
000b5b 940e 0ef5 	CALL SUBOPT_0x3B
000b5d f421      	BRNE _0x2040093
000b5e 930a      	ST   -Y,R16
000b5f 2fa2      	MOV  R26,R18
000b60 50a1      	SUBI R26,LOW(1)
000b61 dcea      	RCALL _glcd_setpixel
                 _0x2040093:
                 _0x2040090:
                 _0x204008C:
                 _0x204008B:
000b62 85e8      	LDD  R30,Y+8
000b63 78e4      	ANDI R30,LOW(0x84)
000b64 38e4      	CPI  R30,LOW(0x84)
000b65 f071      	BREQ _0x2040095
000b66 85e8      	LDD  R30,Y+8
000b67 78e0      	ANDI R30,LOW(0x80)
000b68 f4a9      	BRNE _0x2040097
000b69 85ad      	LDD  R26,Y+13
000b6a 85be      	LDD  R27,Y+13+1
000b6b e0ee      	LDI  R30,LOW(270)
000b6c e0f1      	LDI  R31,HIGH(270)
000b6d 940e 0ee3 	CALL SUBOPT_0x38
000b6f f01c      	BRLT _0x2040099
000b70 940e 0eec 	CALL SUBOPT_0x39
000b72 f40c      	BRGE _0x204009A
                 _0x2040099:
000b73 c00a      	RJMP _0x2040098
                 _0x204009A:
                 _0x2040095:
000b74 940e 0f08 	CALL SUBOPT_0x3E
000b76 f038      	BRLO _0x204009B
000b77 940e 0f0f 	CALL SUBOPT_0x3F
000b79 f421      	BRNE _0x204009C
000b7a 930a      	ST   -Y,R16
000b7b 2fa4      	MOV  R26,R20
000b7c 5faf      	SUBI R26,-LOW(1)
000b7d dcce      	RCALL _glcd_setpixel
                 _0x204009C:
                 _0x204009B:
                 _0x2040098:
                 _0x2040097:
                 _0x2040087:
000b7e 89aa      	LDD  R26,Y+18
000b7f 27bb      	CLR  R27
000b80 89e8      	LDD  R30,Y+16
000b81 940e 0eab 	CALL SUBOPT_0x30
000b83 89a9      	LDD  R26,Y+17
000b84 27bb      	CLR  R27
000b85 85ef      	LDD  R30,Y+15
000b86 940e 0ed4 	CALL SUBOPT_0x36
000b88 85ef      	LDD  R30,Y+15
000b89 940e 0edb 	CALL SUBOPT_0x37
000b8b f081      	BREQ _0x204009E
000b8c 85e8      	LDD  R30,Y+8
000b8d 78e0      	ANDI R30,LOW(0x80)
000b8e f4f1      	BRNE _0x20400A0
000b8f 85eb      	LDD  R30,Y+11
000b90 85fc      	LDD  R31,Y+11+1
000b91 85ad      	LDD  R26,Y+13
000b92 85be      	LDD  R27,Y+13+1
000b93 17ae      	CP   R26,R30
000b94 07bf      	CPC  R27,R31
000b95 f02c      	BRLT _0x20400A2
000b96 85e9      	LDD  R30,Y+9
000b97 85fa      	LDD  R31,Y+9+1
000b98 17ea      	CP   R30,R26
000b99 07fb      	CPC  R31,R27
000b9a f40c      	BRGE _0x20400A3
                 _0x20400A2:
000b9b c011      	RJMP _0x20400A1
                 _0x20400A3:
                 _0x204009E:
000b9c 2333      	TST  R19
000b9d f07a      	BRMI _0x20400A4
000b9e 940e 0ef1 	CALL SUBOPT_0x3A
000ba0 81af      	LDD  R26,Y+7
000ba1 30a2      	CPI  R26,LOW(0x2)
000ba2 f050      	BRLO _0x20400A5
000ba3 2fe0      	MOV  R30,R16
000ba4 5fee      	SUBI R30,-LOW(2)
000ba5 940e 0f18 	CALL SUBOPT_0x40
000ba7 f429      	BRNE _0x20400A6
000ba8 2fe0      	MOV  R30,R16
000ba9 5fef      	SUBI R30,-LOW(1)
000baa 93ea      	ST   -Y,R30
000bab 2fa2      	MOV  R26,R18
000bac dc9f      	RCALL _glcd_setpixel
                 _0x20400A6:
                 _0x20400A5:
                 _0x20400A4:
                 _0x20400A1:
                 _0x20400A0:
000bad 85e8      	LDD  R30,Y+8
000bae 78e8      	ANDI R30,LOW(0x88)
000baf 38e8      	CPI  R30,LOW(0x88)
000bb0 f071      	BREQ _0x20400A8
000bb1 85e8      	LDD  R30,Y+8
000bb2 78e0      	ANDI R30,LOW(0x80)
000bb3 f4c1      	BRNE _0x20400AA
000bb4 85ad      	LDD  R26,Y+13
000bb5 85be      	LDD  R27,Y+13+1
000bb6 e6e8      	LDI  R30,LOW(360)
000bb7 e0f1      	LDI  R31,HIGH(360)
000bb8 940e 0ee3 	CALL SUBOPT_0x38
000bba f01c      	BRLT _0x20400AC
000bbb 940e 0eec 	CALL SUBOPT_0x39
000bbd f40c      	BRGE _0x20400AD
                 _0x20400AC:
000bbe c00d      	RJMP _0x20400AB
                 _0x20400AD:
                 _0x20400A8:
000bbf 940e 0f08 	CALL SUBOPT_0x3E
000bc1 f050      	BRLO _0x20400AE
000bc2 2fe0      	MOV  R30,R16
000bc3 5fee      	SUBI R30,-LOW(2)
000bc4 940e 0f20 	CALL SUBOPT_0x41
000bc6 f429      	BRNE _0x20400AF
000bc7 2fe0      	MOV  R30,R16
000bc8 5fef      	SUBI R30,-LOW(1)
000bc9 93ea      	ST   -Y,R30
000bca 2fa4      	MOV  R26,R20
000bcb dc80      	RCALL _glcd_setpixel
                 _0x20400AF:
                 _0x20400AE:
                 _0x20400AB:
                 _0x20400AA:
000bcc 89aa      	LDD  R26,Y+18
000bcd 27bb      	CLR  R27
000bce 89e8      	LDD  R30,Y+16
000bcf e0f0      	LDI  R31,0
000bd0 1bae      	SUB  R26,R30
000bd1 0bbf      	SBC  R27,R31
000bd2 018d      	MOVW R16,R26
000bd3 2311      	TST  R17
000bd4 f40a      	BRPL PC+2
000bd5 c050      	RJMP _0x20400B0
000bd6 85e8      	LDD  R30,Y+8
000bd7 78e2      	ANDI R30,LOW(0x82)
000bd8 38e2      	CPI  R30,LOW(0x82)
000bd9 f071      	BREQ _0x20400B2
000bda 85e8      	LDD  R30,Y+8
000bdb 78e0      	ANDI R30,LOW(0x80)
000bdc f509      	BRNE _0x20400B4
000bdd 85ad      	LDD  R26,Y+13
000bde 85be      	LDD  R27,Y+13+1
000bdf ebe4      	LDI  R30,LOW(180)
000be0 e0f0      	LDI  R31,HIGH(180)
000be1 940e 0ee3 	CALL SUBOPT_0x38
000be3 f01c      	BRLT _0x20400B6
000be4 940e 0eec 	CALL SUBOPT_0x39
000be6 f40c      	BRGE _0x20400B7
                 _0x20400B6:
000be7 c016      	RJMP _0x20400B5
                 _0x20400B7:
                 _0x20400B2:
000be8 2333      	TST  R19
000be9 f0a2      	BRMI _0x20400B8
000bea 940e 0ef1 	CALL SUBOPT_0x3A
000bec 81af      	LDD  R26,Y+7
000bed 30a2      	CPI  R26,LOW(0x2)
000bee f020      	BRLO _0x20400BA
                +
000bef 3002     +CPI R16 , LOW ( 2 )
000bf0 e0e0     +LDI R30 , HIGH ( 2 )
000bf1 071e     +CPC R17 , R30
                 	__CPWRN 16,17,2
000bf2 f40c      	BRGE _0x20400BB
                 _0x20400BA:
000bf3 c00a      	RJMP _0x20400B9
                 _0x20400BB:
000bf4 2fe0      	MOV  R30,R16
000bf5 50e2      	SUBI R30,LOW(2)
000bf6 940e 0f18 	CALL SUBOPT_0x40
000bf8 f429      	BRNE _0x20400BC
000bf9 2fe0      	MOV  R30,R16
000bfa 50e1      	SUBI R30,LOW(1)
000bfb 93ea      	ST   -Y,R30
000bfc 2fa2      	MOV  R26,R18
000bfd dc4e      	RCALL _glcd_setpixel
                 _0x20400BC:
                 _0x20400B9:
                 _0x20400B8:
                 _0x20400B5:
                 _0x20400B4:
000bfe 85e8      	LDD  R30,Y+8
000bff 78e4      	ANDI R30,LOW(0x84)
000c00 38e4      	CPI  R30,LOW(0x84)
000c01 f091      	BREQ _0x20400BE
000c02 85e8      	LDD  R30,Y+8
000c03 78e0      	ANDI R30,LOW(0x80)
000c04 f509      	BRNE _0x20400C0
000c05 85ad      	LDD  R26,Y+13
000c06 85be      	LDD  R27,Y+13+1
000c07 54ac      	SUBI R26,LOW(-180)
000c08 4fbf      	SBCI R27,HIGH(-180)
000c09 940e 0efe 	CALL SUBOPT_0x3C
000c0b f03c      	BRLT _0x20400C2
000c0c 85ad      	LDD  R26,Y+13
000c0d 85be      	LDD  R27,Y+13+1
000c0e 54ac      	SUBI R26,LOW(-180)
000c0f 4fbf      	SBCI R27,HIGH(-180)
000c10 940e 0f03 	CALL SUBOPT_0x3D
000c12 f40c      	BRGE _0x20400C3
                 _0x20400C2:
000c13 c012      	RJMP _0x20400C1
                 _0x20400C3:
                 _0x20400BE:
000c14 940e 0f08 	CALL SUBOPT_0x3E
000c16 f020      	BRLO _0x20400C5
                +
000c17 3002     +CPI R16 , LOW ( 2 )
000c18 e0e0     +LDI R30 , HIGH ( 2 )
000c19 071e     +CPC R17 , R30
                 	__CPWRN 16,17,2
000c1a f40c      	BRGE _0x20400C6
                 _0x20400C5:
000c1b c00a      	RJMP _0x20400C4
                 _0x20400C6:
000c1c 2fe0      	MOV  R30,R16
000c1d 50e2      	SUBI R30,LOW(2)
000c1e 940e 0f20 	CALL SUBOPT_0x41
000c20 f429      	BRNE _0x20400C7
000c21 2fe0      	MOV  R30,R16
000c22 50e1      	SUBI R30,LOW(1)
000c23 93ea      	ST   -Y,R30
000c24 2fa4      	MOV  R26,R20
000c25 dc26      	RCALL _glcd_setpixel
                 _0x20400C7:
                 _0x20400C4:
                 _0x20400C1:
                 _0x20400C0:
                 _0x20400B0:
000c26 940e 1180 	CALL __LOADLOCR6
000c28 9663      	ADIW R28,19
000c29 9508      	RET
                 ; .FEND
                 _glcd_line2_G102:
                 ; .FSTART _glcd_line2_G102
000c2a 93aa      	ST   -Y,R26
000c2b 940e 117b 	CALL __SAVELOCR4
000c2d 81af      	LDD  R26,Y+7
000c2e 27bb      	CLR  R27
000c2f 81ed      	LDD  R30,Y+5
000c30 e0f0      	LDI  R31,0
000c31 1bae      	SUB  R26,R30
000c32 0bbf      	SBC  R27,R31
000c33 dbf0      	RCALL _glcd_clipx
000c34 2f1e      	MOV  R17,R30
000c35 81af      	LDD  R26,Y+7
000c36 27bb      	CLR  R27
000c37 81ed      	LDD  R30,Y+5
000c38 e0f0      	LDI  R31,0
000c39 0fae      	ADD  R26,R30
000c3a 1fbf      	ADC  R27,R31
000c3b dbe8      	RCALL _glcd_clipx
000c3c 2f0e      	MOV  R16,R30
000c3d 81ae      	LDD  R26,Y+6
000c3e 27bb      	CLR  R27
000c3f 81ec      	LDD  R30,Y+4
000c40 e0f0      	LDI  R31,0
000c41 1bae      	SUB  R26,R30
000c42 0bbf      	SBC  R27,R31
000c43 dbf5      	RCALL _glcd_clipy
000c44 2f3e      	MOV  R19,R30
000c45 81ae      	LDD  R26,Y+6
000c46 27bb      	CLR  R27
000c47 81ec      	LDD  R30,Y+4
000c48 e0f0      	LDI  R31,0
000c49 0fae      	ADD  R26,R30
000c4a 1fbf      	ADC  R27,R31
000c4b dbed      	RCALL _glcd_clipy
000c4c 2f2e      	MOV  R18,R30
000c4d 931a      	ST   -Y,R17
000c4e 933a      	ST   -Y,R19
000c4f 930a      	ST   -Y,R16
000c50 2fa3      	MOV  R26,R19
000c51 dd30      	RCALL _glcd_line
000c52 931a      	ST   -Y,R17
000c53 932a      	ST   -Y,R18
000c54 930a      	ST   -Y,R16
000c55 2fa2      	MOV  R26,R18
                 _0x2100005:
000c56 dd2b      	RCALL _glcd_line
000c57 940e 1182 	CALL __LOADLOCR4
                 _0x2100006:
000c59 9628      	ADIW R28,8
000c5a 9508      	RET
                 ; .FEND
                 _glcd_quadrant_G102:
                 ; .FSTART _glcd_quadrant_G102
000c5b 93aa      	ST   -Y,R26
000c5c 940e 1179 	CALL __SAVELOCR6
000c5e 85a9      	LDD  R26,Y+9
000c5f 35a4      	CPI  R26,LOW(0x54)
000c60 f418      	BRSH _0x20400C9
000c61 85a8      	LDD  R26,Y+8
000c62 33a0      	CPI  R26,LOW(0x30)
000c63 f008      	BRLO _0x20400C8
                 _0x20400C9:
000c64 c04f      	RJMP _0x2100004
                 _0x20400C8:
                +
000c65 9150 0175+LDS R21 , _glcd_state + ( 8 )
                 	__GETBRMN 21,_glcd_state,8
                 _0x20400CB:
000c67 2fe5      	MOV  R30,R21
000c68 5051      	SUBI R21,1
000c69 30e0      	CPI  R30,0
000c6a f409      	BRNE PC+2
000c6b c048      	RJMP _0x20400CD
000c6c 81ef      	LDD  R30,Y+7
000c6d 30e0      	CPI  R30,0
000c6e f409      	BRNE _0x20400CE
000c6f c044      	RJMP _0x2100004
                 _0x20400CE:
000c70 81ef      	LDD  R30,Y+7
000c71 50e1      	SUBI R30,LOW(1)
000c72 83ef      	STD  Y+7,R30
000c73 5fef      	SUBI R30,-LOW(1)
000c74 2f0e      	MOV  R16,R30
000c75 e0f0      	LDI  R31,0
000c76 e0a5      	LDI  R26,LOW(5)
000c77 e0b0      	LDI  R27,HIGH(5)
000c78 1bae      	SUB  R26,R30
000c79 0bbf      	SBC  R27,R31
000c7a 01fd      	MOVW R30,R26
000c7b 940e 10de 	CALL __LSLW2
000c7d 940e 10e3 	CALL __ASRW2
000c7f 019f      	MOVW R18,R30
000c80 e010      	LDI  R17,LOW(0)
                 _0x20400D0:
000c81 81ae      	LDD  R26,Y+6
000c82 34a0      	CPI  R26,LOW(0x40)
000c83 f459      	BRNE _0x20400D2
000c84 940e 0f28 	CALL SUBOPT_0x42
000c86 931a      	ST   -Y,R17
000c87 2fa0      	MOV  R26,R16
000c88 dfa1      	RCALL _glcd_line2_G102
000c89 940e 0f28 	CALL SUBOPT_0x42
000c8b 930a      	ST   -Y,R16
000c8c 2fa1      	MOV  R26,R17
000c8d df9c      	RCALL _glcd_line2_G102
000c8e c00f      	RJMP _0x20400D3
                 _0x20400D2:
000c8f 940e 0f28 	CALL SUBOPT_0x42
000c91 931a      	ST   -Y,R17
000c92 930a      	ST   -Y,R16
000c93 85ea      	LDD  R30,Y+10
000c94 e0f0      	LDI  R31,0
000c95 93fa      	ST   -Y,R31
000c96 93ea      	ST   -Y,R30
000c97 e0e0      	LDI  R30,LOW(0)
000c98 e0f0      	LDI  R31,HIGH(0)
000c99 93fa      	ST   -Y,R31
000c9a 93ea      	ST   -Y,R30
000c9b e0a0      	LDI  R26,LOW(0)
000c9c e0b0      	LDI  R27,0
000c9d de35      	RCALL _glcd_plot8_G102
                 _0x20400D3:
000c9e 5f1f      	SUBI R17,-1
000c9f 2333      	TST  R19
000ca0 f41a      	BRPL _0x20400D4
000ca1 2fe1      	MOV  R30,R17
000ca2 e0f0      	LDI  R31,0
000ca3 c008      	RJMP _0x204011C
                 _0x20400D4:
000ca4 5001      	SUBI R16,1
000ca5 2fa1      	MOV  R26,R17
000ca6 27bb      	CLR  R27
000ca7 2fe0      	MOV  R30,R16
000ca8 e0f0      	LDI  R31,0
000ca9 1bae      	SUB  R26,R30
000caa 0bbf      	SBC  R27,R31
000cab 01fd      	MOVW R30,R26
                 _0x204011C:
000cac 0fee      	LSL  R30
000cad 1fff      	ROL  R31
000cae 9631      	ADIW R30,1
                +
000caf 0f2e     +ADD R18 , R30
000cb0 1f3f     +ADC R19 , R31
                 	__ADDWRR 18,19,30,31
000cb1 1701      	CP   R16,R17
000cb2 f670      	BRSH _0x20400D0
000cb3 cfb3      	RJMP _0x20400CB
                 _0x20400CD:
                 _0x2100004:
000cb4 940e 1180 	CALL __LOADLOCR6
000cb6 962a      	ADIW R28,10
000cb7 9508      	RET
                 ; .FEND
                 _glcd_circle:
                 ; .FSTART _glcd_circle
000cb8 93aa      	ST   -Y,R26
000cb9 81ea      	LDD  R30,Y+2
000cba 93ea      	ST   -Y,R30
000cbb 81ea      	LDD  R30,Y+2
000cbc 93ea      	ST   -Y,R30
000cbd 81ea      	LDD  R30,Y+2
000cbe 93ea      	ST   -Y,R30
000cbf e8af      	LDI  R26,LOW(143)
000cc0 df9a      	RCALL _glcd_quadrant_G102
000cc1 c083      	RJMP _0x2100001
                 ; .FEND
                 _glcd_fillcircle:
                 ; .FSTART _glcd_fillcircle
000cc2 93aa      	ST   -Y,R26
000cc3 940e 117b 	CALL __SAVELOCR4
000cc5 9110 016d 	LDS  R17,_glcd_state
                +
000cc7 91e0 0175+LDS R30 , _glcd_state + ( 8 )
                 	__GETB1MN _glcd_state,8
000cc9 2f0e      	MOV  R16,R30
                +
000cca 91e0 0176+LDS R30 , _glcd_state + ( 9 )
                 	__GETB1MN _glcd_state,9
000ccc 2f3e      	MOV  R19,R30
                +
000ccd 91e0 017d+LDS R30 , _glcd_state + ( 16 )
                 	__GETB1MN _glcd_state,16
000ccf 93e0 016d 	STS  _glcd_state,R30
000cd1 940e 0e43 	CALL SUBOPT_0x22
000cd3 81ee      	LDD  R30,Y+6
000cd4 93ea      	ST   -Y,R30
000cd5 81ee      	LDD  R30,Y+6
000cd6 93ea      	ST   -Y,R30
000cd7 81ee      	LDD  R30,Y+6
000cd8 93ea      	ST   -Y,R30
000cd9 e4a0      	LDI  R26,LOW(64)
000cda df80      	RCALL _glcd_quadrant_G102
000cdb 9310 016d 	STS  _glcd_state,R17
                +
000cdd 9300 0175+STS _glcd_state + ( 8 ) , R16
                 	__PUTBMRN _glcd_state,8,16
                +
000cdf 9330 0176+STS _glcd_state + ( 9 ) , R19
                 	__PUTBMRN _glcd_state,9,19
000ce1 940e 1182 	CALL __LOADLOCR4
000ce3 9627      	ADIW R28,7
000ce4 9508      	RET
                 ; .FEND
                 
                 	.CSEG
                 
                 	.DSEG
                 
                 	.CSEG
                 
                 	.CSEG
                 _memset:
                 ; .FSTART _memset
000ce5 93ba      	ST   -Y,R27
000ce6 93aa      	ST   -Y,R26
000ce7 81b9          ldd  r27,y+1
000ce8 81a8          ld   r26,y
000ce9 9610          adiw r26,0
000cea f031          breq memset1
000ceb 81fc          ldd  r31,y+4
000cec 81eb          ldd  r30,y+3
000ced 816a          ldd  r22,y+2
                 memset0:
000cee 9361          st   z+,r22
000cef 9711          sbiw r26,1
000cf0 f7e9          brne memset0
                 memset1:
000cf1 81eb          ldd  r30,y+3
000cf2 81fc          ldd  r31,y+4
                 _0x2100003:
000cf3 9625      	ADIW R28,5
000cf4 9508      	RET
                 ; .FEND
                 
                 	.CSEG
                 _glcd_getmask:
                 ; .FSTART _glcd_getmask
000cf5 93aa      	ST   -Y,R26
000cf6 81e8      	LD   R30,Y
000cf7 e0f0      	LDI  R31,0
000cf8 5ce8      	SUBI R30,LOW(-__glcd_mask*2)
000cf9 4ffd      	SBCI R31,HIGH(-__glcd_mask*2)
000cfa 91a4      	LPM  R26,Z
000cfb 81e9      	LDD  R30,Y+1
000cfc 940e 10ce 	CALL __LSLB12
                 _0x2100002:
000cfe 9622      	ADIW R28,2
000cff 9508      	RET
                 ; .FEND
                 _glcd_mappixcolor1bit:
                 ; .FSTART _glcd_mappixcolor1bit
000d00 93aa      	ST   -Y,R26
000d01 931a      	ST   -Y,R17
000d02 81e9      	LDD  R30,Y+1
000d03 30e7      	CPI  R30,LOW(0x7)
000d04 f011      	BREQ _0x20C0007
000d05 30ea      	CPI  R30,LOW(0xA)
000d06 f419      	BRNE _0x20C0008
                 _0x20C0007:
000d07 9110 016d 	LDS  R17,_glcd_state
000d09 c009      	RJMP _0x20C0009
                 _0x20C0008:
000d0a 30e9      	CPI  R30,LOW(0x9)
000d0b f419      	BRNE _0x20C000B
                +
000d0c 9110 016e+LDS R17 , _glcd_state + ( 1 )
                 	__GETBRMN 17,_glcd_state,1
000d0e c004      	RJMP _0x20C0009
                 _0x20C000B:
000d0f 30e8      	CPI  R30,LOW(0x8)
000d10 f4a1      	BRNE _0x20C0005
                +
000d11 9110 017d+LDS R17 , _glcd_state + ( 16 )
                 	__GETBRMN 17,_glcd_state,16
                 _0x20C0009:
                +
000d13 91e0 016e+LDS R30 , _glcd_state + ( 1 )
                 	__GETB1MN _glcd_state,1
000d15 30e0      	CPI  R30,0
000d16 f049      	BREQ _0x20C000E
000d17 3010      	CPI  R17,0
000d18 f019      	BREQ _0x20C000F
000d19 efef      	LDI  R30,LOW(255)
000d1a 8118      	LDD  R17,Y+0
000d1b c029      	RJMP _0x2100001
                 _0x20C000F:
000d1c 81ea      	LDD  R30,Y+2
000d1d 95e0      	COM  R30
000d1e 8118      	LDD  R17,Y+0
000d1f c025      	RJMP _0x2100001
                 _0x20C000E:
000d20 3010      	CPI  R17,0
000d21 f419      	BRNE _0x20C0011
000d22 e0e0      	LDI  R30,LOW(0)
000d23 8118      	LDD  R17,Y+0
000d24 c020      	RJMP _0x2100001
                 _0x20C0011:
                 _0x20C0005:
000d25 81ea      	LDD  R30,Y+2
000d26 8118      	LDD  R17,Y+0
000d27 c01d      	RJMP _0x2100001
                 ; .FEND
                 _glcd_readmem:
                 ; .FSTART _glcd_readmem
000d28 93ba      	ST   -Y,R27
000d29 93aa      	ST   -Y,R26
000d2a 81ea      	LDD  R30,Y+2
000d2b 30e1      	CPI  R30,LOW(0x1)
000d2c f421      	BRNE _0x20C0015
000d2d 81e8      	LD   R30,Y
000d2e 81f9      	LDD  R31,Y+1
000d2f 91e4      	LPM  R30,Z
000d30 c014      	RJMP _0x2100001
                 _0x20C0015:
000d31 30e2      	CPI  R30,LOW(0x2)
000d32 f429      	BRNE _0x20C0016
000d33 81a8      	LD   R26,Y
000d34 81b9      	LDD  R27,Y+1
000d35 940e 1158 	CALL __EEPROMRDB
000d37 c00d      	RJMP _0x2100001
                 _0x20C0016:
000d38 30e3      	CPI  R30,LOW(0x3)
000d39 f441      	BRNE _0x20C0018
000d3a 81a8      	LD   R26,Y
000d3b 81b9      	LDD  R27,Y+1
                +
000d3c 91e0 0186+LDS R30 , _glcd_state + ( 25 )
000d3e 91f0 0187+LDS R31 , _glcd_state + ( 25 ) + 1
000d40 9509     +ICALL
                 	__CALL1MN _glcd_state,25
000d41 c003      	RJMP _0x2100001
                 _0x20C0018:
000d42 81a8      	LD   R26,Y
000d43 81b9      	LDD  R27,Y+1
000d44 91ec      	LD   R30,X
                 _0x2100001:
000d45 9623      	ADIW R28,3
000d46 9508      	RET
                 ; .FEND
                 _glcd_writemem:
                 ; .FSTART _glcd_writemem
000d47 93aa      	ST   -Y,R26
000d48 81eb      	LDD  R30,Y+3
000d49 30e0      	CPI  R30,0
000d4a f429      	BRNE _0x20C001C
000d4b 81e8      	LD   R30,Y
000d4c 81a9      	LDD  R26,Y+1
000d4d 81ba      	LDD  R27,Y+1+1
000d4e 93ec      	ST   X,R30
000d4f c014      	RJMP _0x20C001B
                 _0x20C001C:
000d50 30e2      	CPI  R30,LOW(0x2)
000d51 f431      	BRNE _0x20C001D
000d52 81e8      	LD   R30,Y
000d53 81a9      	LDD  R26,Y+1
000d54 81ba      	LDD  R27,Y+1+1
000d55 940e 1164 	CALL __EEPROMWRB
000d57 c00c      	RJMP _0x20C001B
                 _0x20C001D:
000d58 30e3      	CPI  R30,LOW(0x3)
000d59 f451      	BRNE _0x20C001B
000d5a 81e9      	LDD  R30,Y+1
000d5b 81fa      	LDD  R31,Y+1+1
000d5c 93fa      	ST   -Y,R31
000d5d 93ea      	ST   -Y,R30
000d5e 81aa      	LDD  R26,Y+2
                +
000d5f 91e0 0188+LDS R30 , _glcd_state + ( 27 )
000d61 91f0 0189+LDS R31 , _glcd_state + ( 27 ) + 1
000d63 9509     +ICALL
                 	__CALL1MN _glcd_state,27
                 _0x20C001B:
000d64 9624      	ADIW R28,4
000d65 9508      	RET
                 ; .FEND
                 
                 	.CSEG
                 
                 	.DSEG
                 _glcd_state:
00016d           	.BYTE 0x1D
                 _cntx:
00018a           	.BYTE 0x2
                 _cnty:
00018c           	.BYTE 0x2
                 _cntx1:
00018e           	.BYTE 0x2
                 _cnty1:
000190           	.BYTE 0x2
                 _cnt2:
000192           	.BYTE 0x2
                 _x1:
000194           	.BYTE 0x2
                 _y1:
000196           	.BYTE 0x2
                 _x2:
000198           	.BYTE 0x2
                 _y2:
00019a           	.BYTE 0x2
                 _x3:
00019c           	.BYTE 0x2
                 _y3:
00019e           	.BYTE 0x2
                 _x4:
0001a0           	.BYTE 0x2
                 _y4:
0001a2           	.BYTE 0x2
                 _cnt6:
0001a4           	.BYTE 0x2
                 _cnt7:
0001a6           	.BYTE 0x2
                 _cnt8:
0001a8           	.BYTE 0x2
                 _cnt3:
0001aa           	.BYTE 0x4
                 _cnt4:
0001ae           	.BYTE 0x4
                 _cnt5:
0001b2           	.BYTE 0x4
                 _gfx_addr_G101:
0001b6           	.BYTE 0x2
                 _gfx_buffer_G101:
0001b8           	.BYTE 0x1F8
                 __seed_G104:
0003b0           	.BYTE 0x4
                 
                 	.CSEG
                 ;OPTIMIZER ADDED SUBROUTINE, CALLED 8 TIMES, CODE SIZE REDUCTION:18 WORDS
                 SUBOPT_0x0:
000d66 91ed      	LD   R30,X+
000d67 91fd      	LD   R31,X+
000d68 9631      	ADIW R30,1
000d69 93fe      	ST   -X,R31
000d6a 93ee      	ST   -X,R30
000d6b 9508      	RET
                 
                 ;OPTIMIZER ADDED SUBROUTINE, CALLED 2 TIMES, CODE SIZE REDUCTION:7 WORDS
                 SUBOPT_0x1:
000d6c 91e0 018a 	LDS  R30,_cntx
000d6e 91f0 018b 	LDS  R31,_cntx+1
000d70 efaf      	LDI  R26,LOW(65535)
000d71 efbf      	LDI  R27,HIGH(65535)
000d72 940e 10f0 	CALL __MULW12
000d74 93e0 018a 	STS  _cntx,R30
000d76 93f0 018b 	STS  _cntx+1,R31
000d78 9508      	RET
                 
                 ;OPTIMIZER ADDED SUBROUTINE, CALLED 4 TIMES, CODE SIZE REDUCTION:3 WORDS
                 SUBOPT_0x2:
000d79 efaf      	LDI  R26,LOW(65535)
000d7a efbf      	LDI  R27,HIGH(65535)
000d7b 940e 10f0 	CALL __MULW12
000d7d 9508      	RET
                 
                 ;OPTIMIZER ADDED SUBROUTINE, CALLED 4 TIMES, CODE SIZE REDUCTION:3 WORDS
                 SUBOPT_0x3:
000d7e 91a0 01a0 	LDS  R26,_x4
000d80 91b0 01a1 	LDS  R27,_x4+1
000d82 9508      	RET
                 
                 ;OPTIMIZER ADDED SUBROUTINE, CALLED 2 TIMES, CODE SIZE REDUCTION:1 WORDS
                 SUBOPT_0x4:
000d83 91e0 018e 	LDS  R30,_cntx1
000d85 91f0 018f 	LDS  R31,_cntx1+1
000d87 cff1      	RJMP SUBOPT_0x2
                 
                 ;OPTIMIZER ADDED SUBROUTINE, CALLED 5 TIMES, CODE SIZE REDUCTION:5 WORDS
                 SUBOPT_0x5:
000d88 91a0 01a2 	LDS  R26,_y4
000d8a 91b0 01a3 	LDS  R27,_y4+1
000d8c 9508      	RET
                 
                 ;OPTIMIZER ADDED SUBROUTINE, CALLED 3 TIMES, CODE SIZE REDUCTION:1 WORDS
                 SUBOPT_0x6:
000d8d 93ea      	ST   -Y,R30
000d8e e1e4      	LDI  R30,LOW(20)
000d8f 93ea      	ST   -Y,R30
000d90 01d4      	MOVW R26,R8
000d91 9508      	RET
                 
                 ;OPTIMIZER ADDED SUBROUTINE, CALLED 5 TIMES, CODE SIZE REDUCTION:33 WORDS
                 SUBOPT_0x7:
000d92 940e 1108 	CALL __DIVW21
000d94 01df      	MOVW R26,R30
000d95 e0ea      	LDI  R30,LOW(10)
000d96 e0f0      	LDI  R31,HIGH(10)
000d97 940e 110d 	CALL __MODW21
000d99 5de0      	SUBI R30,-LOW(48)
000d9a 2fae      	MOV  R26,R30
000d9b 940c 093c 	JMP  _glcd_putcharxy
                 
                 ;OPTIMIZER ADDED SUBROUTINE, CALLED 4 TIMES, CODE SIZE REDUCTION:3 WORDS
                 SUBOPT_0x8:
000d9d e0ea      	LDI  R30,LOW(10)
000d9e e0f0      	LDI  R31,HIGH(10)
000d9f cff2      	RJMP SUBOPT_0x7
                 
                 ;OPTIMIZER ADDED SUBROUTINE, CALLED 4 TIMES, CODE SIZE REDUCTION:15 WORDS
                 SUBOPT_0x9:
000da0 e0ea      	LDI  R30,LOW(10)
000da1 e0f0      	LDI  R31,HIGH(10)
000da2 940e 110d 	CALL __MODW21
000da4 5de0      	SUBI R30,-LOW(48)
000da5 2fae      	MOV  R26,R30
000da6 940c 093c 	JMP  _glcd_putcharxy
                 
                 ;OPTIMIZER ADDED SUBROUTINE, CALLED 3 TIMES, CODE SIZE REDUCTION:9 WORDS
                 SUBOPT_0xA:
000da8 91a0 01aa 	LDS  R26,_cnt3
000daa 91b0 01ab 	LDS  R27,_cnt3+1
000dac 9180 01ac 	LDS  R24,_cnt3+2
000dae 9190 01ad 	LDS  R25,_cnt3+3
000db0 9508      	RET
                 
                 ;OPTIMIZER ADDED SUBROUTINE, CALLED 2 TIMES, CODE SIZE REDUCTION:1 WORDS
                 SUBOPT_0xB:
                +
000db1 e0e0     +LDI R30 , LOW ( 0x41300000 )
000db2 e0f0     +LDI R31 , HIGH ( 0x41300000 )
000db3 e360     +LDI R22 , BYTE3 ( 0x41300000 )
000db4 e471     +LDI R23 , BYTE4 ( 0x41300000 )
                 	__GETD1N 0x41300000
000db5 940e 10a2 	CALL __CMPF12
000db7 9508      	RET
                 
                 ;OPTIMIZER ADDED SUBROUTINE, CALLED 2 TIMES, CODE SIZE REDUCTION:1 WORDS
                 SUBOPT_0xC:
                +
000db8 e7a0     +LDI R26 , LOW ( 0x3DD67770 )
000db9 e7b7     +LDI R27 , HIGH ( 0x3DD67770 )
000dba ed86     +LDI R24 , BYTE3 ( 0x3DD67770 )
000dbb e39d     +LDI R25 , BYTE4 ( 0x3DD67770 )
                 	__GETD2N 0x3DD67770
000dbc 940e 0fbf 	CALL __ADDF12
000dbe 9508      	RET
                 
                 ;OPTIMIZER ADDED SUBROUTINE, CALLED 2 TIMES, CODE SIZE REDUCTION:3 WORDS
                 SUBOPT_0xD:
000dbf 93e0 01ae 	STS  _cnt4,R30
000dc1 93f0 01af 	STS  _cnt4+1,R31
000dc3 9360 01b0 	STS  _cnt4+2,R22
000dc5 9370 01b1 	STS  _cnt4+3,R23
000dc7 9508      	RET
                 
                 ;OPTIMIZER ADDED SUBROUTINE, CALLED 2 TIMES, CODE SIZE REDUCTION:3 WORDS
                 SUBOPT_0xE:
000dc8 93e0 01aa 	STS  _cnt3,R30
000dca 93f0 01ab 	STS  _cnt3+1,R31
000dcc 9360 01ac 	STS  _cnt3+2,R22
000dce 9370 01ad 	STS  _cnt3+3,R23
000dd0 9508      	RET
                 
                 ;OPTIMIZER ADDED SUBROUTINE, CALLED 3 TIMES, CODE SIZE REDUCTION:9 WORDS
                 SUBOPT_0xF:
000dd1 91a0 01ae 	LDS  R26,_cnt4
000dd3 91b0 01af 	LDS  R27,_cnt4+1
000dd5 9180 01b0 	LDS  R24,_cnt4+2
000dd7 9190 01b1 	LDS  R25,_cnt4+3
000dd9 9508      	RET
                 
                 ;OPTIMIZER ADDED SUBROUTINE, CALLED 4 TIMES, CODE SIZE REDUCTION:3 WORDS
                 SUBOPT_0x10:
000dda e3ee      	LDI  R30,LOW(62)
000ddb 93ea      	ST   -Y,R30
000ddc e1e8      	LDI  R30,LOW(24)
000ddd 93ea      	ST   -Y,R30
000dde 9508      	RET
                 
                 ;OPTIMIZER ADDED SUBROUTINE, CALLED 2 TIMES, CODE SIZE REDUCTION:1 WORDS
                 SUBOPT_0x11:
                +
000ddf e0a0     +LDI R26 , LOW ( 0x41700000 )
000de0 e0b0     +LDI R27 , HIGH ( 0x41700000 )
000de1 e780     +LDI R24 , BYTE3 ( 0x41700000 )
000de2 e491     +LDI R25 , BYTE4 ( 0x41700000 )
                 	__GETD2N 0x41700000
000de3 940e 100f 	CALL __MULF12
000de5 9508      	RET
                 
                 ;OPTIMIZER ADDED SUBROUTINE, CALLED 6 TIMES, CODE SIZE REDUCTION:7 WORDS
                 SUBOPT_0x12:
000de6 940e 0f6c 	CALL __CFD1
000de8 93ed      	ST   X+,R30
000de9 93fc      	ST   X,R31
000dea 9508      	RET
                 
                 ;OPTIMIZER ADDED SUBROUTINE, CALLED 2 TIMES, CODE SIZE REDUCTION:1 WORDS
                 SUBOPT_0x13:
                +
000deb e0a0     +LDI R26 , LOW ( 0x41400000 )
000dec e0b0     +LDI R27 , HIGH ( 0x41400000 )
000ded e480     +LDI R24 , BYTE3 ( 0x41400000 )
000dee e491     +LDI R25 , BYTE4 ( 0x41400000 )
                 	__GETD2N 0x41400000
000def 940e 100f 	CALL __MULF12
000df1 9508      	RET
                 
                 ;OPTIMIZER ADDED SUBROUTINE, CALLED 2 TIMES, CODE SIZE REDUCTION:3 WORDS
                 SUBOPT_0x14:
000df2 91a0 01b2 	LDS  R26,_cnt5
000df4 91b0 01b3 	LDS  R27,_cnt5+1
000df6 9180 01b4 	LDS  R24,_cnt5+2
000df8 9190 01b5 	LDS  R25,_cnt5+3
000dfa 9508      	RET
                 
                 ;OPTIMIZER ADDED SUBROUTINE, CALLED 2 TIMES, CODE SIZE REDUCTION:1 WORDS
                 SUBOPT_0x15:
                +
000dfb e0a0     +LDI R26 , LOW ( 0x41000000 )
000dfc e0b0     +LDI R27 , HIGH ( 0x41000000 )
000dfd e080     +LDI R24 , BYTE3 ( 0x41000000 )
000dfe e491     +LDI R25 , BYTE4 ( 0x41000000 )
                 	__GETD2N 0x41000000
000dff 940e 100f 	CALL __MULF12
000e01 9508      	RET
                 
                 ;OPTIMIZER ADDED SUBROUTINE, CALLED 3 TIMES, CODE SIZE REDUCTION:1 WORDS
                 SUBOPT_0x16:
000e02 91a0 01a4 	LDS  R26,_cnt6
000e04 91b0 01a5 	LDS  R27,_cnt6+1
000e06 9508      	RET
                 
                 ;OPTIMIZER ADDED SUBROUTINE, CALLED 3 TIMES, CODE SIZE REDUCTION:1 WORDS
                 SUBOPT_0x17:
000e07 91a0 01a6 	LDS  R26,_cnt7
000e09 91b0 01a7 	LDS  R27,_cnt7+1
000e0b 9508      	RET
                 
                 ;OPTIMIZER ADDED SUBROUTINE, CALLED 3 TIMES, CODE SIZE REDUCTION:1 WORDS
                 SUBOPT_0x18:
000e0c 91a0 01a8 	LDS  R26,_cnt8
000e0e 91b0 01a9 	LDS  R27,_cnt8+1
000e10 9508      	RET
                 
                 ;OPTIMIZER ADDED SUBROUTINE, CALLED 2 TIMES, CODE SIZE REDUCTION:1 WORDS
                 SUBOPT_0x19:
000e11 93ea      	ST   -Y,R30
000e12 e0e0      	LDI  R30,LOW(0)
000e13 93ea      	ST   -Y,R30
000e14 e3aa      	LDI  R26,LOW(58)
000e15 940c 093c 	JMP  _glcd_putcharxy
                 
                 ;OPTIMIZER ADDED SUBROUTINE, CALLED 2 TIMES, CODE SIZE REDUCTION:1 WORDS
                 SUBOPT_0x1A:
000e17 940e 1146 	CALL __PUTPARD2
000e19 940e 113c 	CALL __GETD2S0
000e1b 9508      	RET
                 
                 ;OPTIMIZER ADDED SUBROUTINE, CALLED 8 TIMES, CODE SIZE REDUCTION:11 WORDS
                 SUBOPT_0x1B:
                +
000e1c 81ad     +LDD R26 , Y + 5
000e1d 81be     +LDD R27 , Y + 5 + 1
000e1e 818f     +LDD R24 , Y + 5 + 2
000e1f 8598     +LDD R25 , Y + 5 + 3
                 	__GETD2S 5
000e20 9508      	RET
                 
                 ;OPTIMIZER ADDED SUBROUTINE, CALLED 2 TIMES, CODE SIZE REDUCTION:1 WORDS
                 SUBOPT_0x1C:
                +
000e21 83ed     +STD Y + 5 , R30
000e22 83fe     +STD Y + 5 + 1 , R31
000e23 836f     +STD Y + 5 + 2 , R22
000e24 8778     +STD Y + 5 + 3 , R23
                 	__PUTD1S 5
000e25 cff6      	RJMP SUBOPT_0x1B
                 
                 ;OPTIMIZER ADDED SUBROUTINE, CALLED 3 TIMES, CODE SIZE REDUCTION:1 WORDS
                 SUBOPT_0x1D:
                +
000e26 81ed     +LDD R30 , Y + 5
000e27 81fe     +LDD R31 , Y + 5 + 1
000e28 816f     +LDD R22 , Y + 5 + 2
000e29 8578     +LDD R23 , Y + 5 + 3
                 	__GETD1S 5
000e2a 9508      	RET
                 
                 ;OPTIMIZER ADDED SUBROUTINE, CALLED 2 TIMES, CODE SIZE REDUCTION:1 WORDS
                 SUBOPT_0x1E:
000e2b 940e 0fb8 	CALL __SUBF12
                +
000e2d 83ed     +STD Y + 5 , R30
000e2e 83fe     +STD Y + 5 + 1 , R31
000e2f 836f     +STD Y + 5 + 2 , R22
000e30 8778     +STD Y + 5 + 3 , R23
                 	__PUTD1S 5
000e31 9508      	RET
                 
                 ;OPTIMIZER ADDED SUBROUTINE, CALLED 2 TIMES, CODE SIZE REDUCTION:1 WORDS
                 SUBOPT_0x1F:
                +
000e32 81a9     +LDD R26 , Y + 1
000e33 81ba     +LDD R27 , Y + 1 + 1
000e34 818b     +LDD R24 , Y + 1 + 2
000e35 819c     +LDD R25 , Y + 1 + 3
                 	__GETD2S 1
000e36 940e 100f 	CALL __MULF12
000e38 9508      	RET
                 
                 ;OPTIMIZER ADDED SUBROUTINE, CALLED 2 TIMES, CODE SIZE REDUCTION:1 WORDS
                 SUBOPT_0x20:
000e39 91e0 01b6 	LDS  R30,_gfx_addr_G101
000e3b 91f0 01b7 	LDS  R31,_gfx_addr_G101+1
000e3d 54e8      	SUBI R30,LOW(-_gfx_buffer_G101)
000e3e 4ffe      	SBCI R31,HIGH(-_gfx_buffer_G101)
000e3f 9508      	RET
                 
                 ;OPTIMIZER ADDED SUBROUTINE, CALLED 4 TIMES, CODE SIZE REDUCTION:3 WORDS
                 SUBOPT_0x21:
000e40 eba6      	LDI  R26,LOW(_gfx_addr_G101)
000e41 e0b1      	LDI  R27,HIGH(_gfx_addr_G101)
000e42 cf23      	RJMP SUBOPT_0x0
                 
                 ;OPTIMIZER ADDED SUBROUTINE, CALLED 2 TIMES, CODE SIZE REDUCTION:1 WORDS
                 SUBOPT_0x22:
000e43 e0e1      	LDI  R30,LOW(1)
                +
000e44 93e0 0175+STS _glcd_state + ( 8 ) , R30
                 	__PUTB1MN _glcd_state,8
000e46 efef      	LDI  R30,LOW(255)
                +
000e47 93e0 0176+STS _glcd_state + ( 9 ) , R30
                 	__PUTB1MN _glcd_state,9
000e49 9508      	RET
                 
                 ;OPTIMIZER ADDED SUBROUTINE, CALLED 3 TIMES, CODE SIZE REDUCTION:1 WORDS
                 SUBOPT_0x23:
000e4a 0fea      	ADD  R30,R26
000e4b 1ffb      	ADC  R31,R27
000e4c 83ee      	STD  Y+6,R30
000e4d 83ff      	STD  Y+6+1,R31
000e4e 9508      	RET
                 
                 ;OPTIMIZER ADDED SUBROUTINE, CALLED 2 TIMES, CODE SIZE REDUCTION:8 WORDS
                 SUBOPT_0x24:
000e4f 85ec      	LDD  R30,Y+12
000e50 93ea      	ST   -Y,R30
000e51 81ef      	LDD  R30,Y+7
000e52 85f8      	LDD  R31,Y+7+1
000e53 9631      	ADIW R30,1
000e54 83ef      	STD  Y+7,R30
000e55 87f8      	STD  Y+7+1,R31
000e56 9731      	SBIW R30,1
000e57 93fa      	ST   -Y,R31
000e58 93ea      	ST   -Y,R30
000e59 e0a0      	LDI  R26,LOW(0)
000e5a 940c 0d47 	JMP  _glcd_writemem
                 
                 ;OPTIMIZER ADDED SUBROUTINE, CALLED 3 TIMES, CODE SIZE REDUCTION:1 WORDS
                 SUBOPT_0x25:
000e5c 930a      	ST   -Y,R16
000e5d 89a8      	LDD  R26,Y+16
000e5e 940c 04e7 	JMP  _pcd8544_setaddr_G101
                 
                 ;OPTIMIZER ADDED SUBROUTINE, CALLED 4 TIMES, CODE SIZE REDUCTION:15 WORDS
                 SUBOPT_0x26:
000e60 85ec      	LDD  R30,Y+12
000e61 93ea      	ST   -Y,R30
000e62 81ef      	LDD  R30,Y+7
000e63 85f8      	LDD  R31,Y+7+1
000e64 9631      	ADIW R30,1
000e65 83ef      	STD  Y+7,R30
000e66 87f8      	STD  Y+7+1,R31
000e67 9731      	SBIW R30,1
000e68 9508      	RET
                 
                 ;OPTIMIZER ADDED SUBROUTINE, CALLED 3 TIMES, CODE SIZE REDUCTION:5 WORDS
                 SUBOPT_0x27:
000e69 2766      	CLR  R22
000e6a 2777      	CLR  R23
000e6b 01df      	MOVW R26,R30
000e6c 01cb      	MOVW R24,R22
000e6d 940c 0d28 	JMP  _glcd_readmem
                 
                 ;OPTIMIZER ADDED SUBROUTINE, CALLED 3 TIMES, CODE SIZE REDUCTION:1 WORDS
                 SUBOPT_0x28:
000e6f 935a      	ST   -Y,R21
000e70 85aa      	LDD  R26,Y+10
000e71 940c 0d00 	JMP  _glcd_mappixcolor1bit
                 
                 ;OPTIMIZER ADDED SUBROUTINE, CALLED 3 TIMES, CODE SIZE REDUCTION:3 WORDS
                 SUBOPT_0x29:
000e73 930a      	ST   -Y,R16
000e74 9503      	INC  R16
000e75 89e8      	LDD  R30,Y+16
000e76 93ea      	ST   -Y,R30
000e77 935a      	ST   -Y,R21
000e78 9508      	RET
                 
                 ;OPTIMIZER ADDED SUBROUTINE, CALLED 2 TIMES, CODE SIZE REDUCTION:5 WORDS
                 SUBOPT_0x2A:
000e79 2f5e      	MOV  R21,R30
000e7a 85ec      	LDD  R30,Y+12
000e7b 93ea      	ST   -Y,R30
000e7c 81af      	LDD  R26,Y+7
000e7d 85b8      	LDD  R27,Y+7+1
000e7e 2788      	CLR  R24
000e7f 2799      	CLR  R25
000e80 940e 0d28 	CALL _glcd_readmem
000e82 2e1e      	MOV  R1,R30
000e83 9508      	RET
                 
                 ;OPTIMIZER ADDED SUBROUTINE, CALLED 2 TIMES, CODE SIZE REDUCTION:9 WORDS
                 SUBOPT_0x2B:
000e84 930a      	ST   -Y,R16
000e85 9503      	INC  R16
000e86 89e8      	LDD  R30,Y+16
000e87 93ea      	ST   -Y,R30
000e88 85ee      	LDD  R30,Y+14
000e89 93ea      	ST   -Y,R30
000e8a 85e9      	LDD  R30,Y+9
000e8b 85fa      	LDD  R31,Y+9+1
000e8c 9631      	ADIW R30,1
000e8d 87e9      	STD  Y+9,R30
000e8e 87fa      	STD  Y+9+1,R31
000e8f 9731      	SBIW R30,1
000e90 cfd8      	RJMP SUBOPT_0x27
                 
                 ;OPTIMIZER ADDED SUBROUTINE, CALLED 2 TIMES, CODE SIZE REDUCTION:1 WORDS
                 SUBOPT_0x2C:
000e91 93ba      	ST   -Y,R27
000e92 93aa      	ST   -Y,R26
000e93 81a8      	LD   R26,Y
000e94 81b9      	LDD  R27,Y+1
000e95 940e 1175 	CALL __CPW02
000e97 9508      	RET
                 
                 ;OPTIMIZER ADDED SUBROUTINE, CALLED 2 TIMES, CODE SIZE REDUCTION:1 WORDS
                 SUBOPT_0x2D:
000e98 940e 1179 	CALL __SAVELOCR6
                +
000e9a 91e0 0171+LDS R30 , _glcd_state + ( 4 )
000e9c 91f0 0172+LDS R31 , _glcd_state + ( 4 ) + 1
                 	__GETW1MN _glcd_state,4
000e9e 9508      	RET
                 
                 ;OPTIMIZER ADDED SUBROUTINE, CALLED 3 TIMES, CODE SIZE REDUCTION:1 WORDS
                 SUBOPT_0x2E:
000e9f 01f8      	MOVW R30,R16
                +
000ea0 5f0f     +SUBI R16 , LOW ( - 1 )
000ea1 4f1f     +SBCI R17 , HIGH ( - 1 )
                 	__ADDWRN 16,17,1
000ea2 9004      	LPM  R0,Z
000ea3 9508      	RET
                 
                 ;OPTIMIZER ADDED SUBROUTINE, CALLED 4 TIMES, CODE SIZE REDUCTION:9 WORDS
                 SUBOPT_0x2F:
                +
000ea4 91e0 0171+LDS R30 , _glcd_state + ( 4 )
000ea6 91f0 0172+LDS R31 , _glcd_state + ( 4 ) + 1
                 	__GETW1MN _glcd_state,4
000ea8 9631      	ADIW R30,1
000ea9 91e4      	LPM  R30,Z
000eaa 9508      	RET
                 
                 ;OPTIMIZER ADDED SUBROUTINE, CALLED 3 TIMES, CODE SIZE REDUCTION:1 WORDS
                 SUBOPT_0x30:
000eab e0f0      	LDI  R31,0
000eac 0fea      	ADD  R30,R26
000ead 1ffb      	ADC  R31,R27
000eae 018f      	MOVW R16,R30
000eaf 9508      	RET
                 
                 ;OPTIMIZER ADDED SUBROUTINE, CALLED 2 TIMES, CODE SIZE REDUCTION:5 WORDS
                 SUBOPT_0x31:
000eb0 93ea      	ST   -Y,R30
000eb1 e0e0      	LDI  R30,LOW(0)
000eb2 93ea      	ST   -Y,R30
000eb3 e0e0      	LDI  R30,LOW(0)
000eb4 e0f0      	LDI  R31,HIGH(0)
000eb5 93fa      	ST   -Y,R31
000eb6 93ea      	ST   -Y,R30
000eb7 e0a9      	LDI  R26,LOW(9)
000eb8 940c 063a 	JMP  _glcd_block
                 
                 ;OPTIMIZER ADDED SUBROUTINE, CALLED 3 TIMES, CODE SIZE REDUCTION:7 WORDS
                 SUBOPT_0x32:
000eba 81ae      	LDD  R26,Y+6
000ebb 5faf      	SUBI R26,-LOW(1)
000ebc 83ae      	STD  Y+6,R26
000ebd 50a1      	SUBI R26,LOW(1)
                +
000ebe 91e0 0175+LDS R30 , _glcd_state + ( 8 )
                 	__GETB1MN _glcd_state,8
000ec0 17ae      	CP   R26,R30
000ec1 9508      	RET
                 
                 ;OPTIMIZER ADDED SUBROUTINE, CALLED 3 TIMES, CODE SIZE REDUCTION:1 WORDS
                 SUBOPT_0x33:
000ec2 933a      	ST   -Y,R19
000ec3 85aa      	LDD  R26,Y+10
000ec4 940c 095a 	JMP  _glcd_putpixelm_G102
                 
                 ;OPTIMIZER ADDED SUBROUTINE, CALLED 2 TIMES, CODE SIZE REDUCTION:1 WORDS
                 SUBOPT_0x34:
000ec6 85a9      	LDD  R26,Y+9
000ec7 85ba      	LDD  R27,Y+9+1
000ec8 0fea      	ADD  R30,R26
000ec9 1ffb      	ADC  R31,R27
000eca 87e9      	STD  Y+9,R30
000ecb 87fa      	STD  Y+9+1,R31
000ecc 9508      	RET
                 
                 ;OPTIMIZER ADDED SUBROUTINE, CALLED 2 TIMES, CODE SIZE REDUCTION:1 WORDS
                 SUBOPT_0x35:
000ecd 85e9      	LDD  R30,Y+9
000ece 85fa      	LDD  R31,Y+9+1
000ecf 1bea      	SUB  R30,R26
000ed0 0bfb      	SBC  R31,R27
000ed1 87e9      	STD  Y+9,R30
000ed2 87fa      	STD  Y+9+1,R31
000ed3 9508      	RET
                 
                 ;OPTIMIZER ADDED SUBROUTINE, CALLED 2 TIMES, CODE SIZE REDUCTION:1 WORDS
                 SUBOPT_0x36:
000ed4 e0f0      	LDI  R31,0
000ed5 1bae      	SUB  R26,R30
000ed6 0bbf      	SBC  R27,R31
000ed7 019d      	MOVW R18,R26
000ed8 89a9      	LDD  R26,Y+17
000ed9 27bb      	CLR  R27
000eda 9508      	RET
                 
                 ;OPTIMIZER ADDED SUBROUTINE, CALLED 2 TIMES, CODE SIZE REDUCTION:2 WORDS
                 SUBOPT_0x37:
000edb e0f0      	LDI  R31,0
000edc 0fea      	ADD  R30,R26
000edd 1ffb      	ADC  R31,R27
000ede 01af      	MOVW R20,R30
000edf 85e8      	LDD  R30,Y+8
000ee0 78e1      	ANDI R30,LOW(0x81)
000ee1 38e1      	CPI  R30,LOW(0x81)
000ee2 9508      	RET
                 
                 ;OPTIMIZER ADDED SUBROUTINE, CALLED 4 TIMES, CODE SIZE REDUCTION:15 WORDS
                 SUBOPT_0x38:
000ee3 1bea      	SUB  R30,R26
000ee4 0bfb      	SBC  R31,R27
000ee5 010f      	MOVW R0,R30
000ee6 01df      	MOVW R26,R30
000ee7 85eb      	LDD  R30,Y+11
000ee8 85fc      	LDD  R31,Y+11+1
000ee9 17ae      	CP   R26,R30
000eea 07bf      	CPC  R27,R31
000eeb 9508      	RET
                 
                 ;OPTIMIZER ADDED SUBROUTINE, CALLED 4 TIMES, CODE SIZE REDUCTION:3 WORDS
                 SUBOPT_0x39:
000eec 85e9      	LDD  R30,Y+9
000eed 85fa      	LDD  R31,Y+9+1
000eee 15e0      	CP   R30,R0
000eef 05f1      	CPC  R31,R1
000ef0 9508      	RET
                 
                 ;OPTIMIZER ADDED SUBROUTINE, CALLED 4 TIMES, CODE SIZE REDUCTION:3 WORDS
                 SUBOPT_0x3A:
000ef1 930a      	ST   -Y,R16
000ef2 2fa2      	MOV  R26,R18
000ef3 940c 084c 	JMP  _glcd_setpixel
                 
                 ;OPTIMIZER ADDED SUBROUTINE, CALLED 2 TIMES, CODE SIZE REDUCTION:3 WORDS
                 SUBOPT_0x3B:
000ef5 930a      	ST   -Y,R16
000ef6 2fa2      	MOV  R26,R18
000ef7 50a2      	SUBI R26,LOW(2)
000ef8 940e 05e5 	CALL _glcd_getpixel
000efa 2fae      	MOV  R26,R30
000efb 81ee      	LDD  R30,Y+6
000efc 17ea      	CP   R30,R26
000efd 9508      	RET
                 
                 ;OPTIMIZER ADDED SUBROUTINE, CALLED 3 TIMES, CODE SIZE REDUCTION:1 WORDS
                 SUBOPT_0x3C:
000efe 85eb      	LDD  R30,Y+11
000eff 85fc      	LDD  R31,Y+11+1
000f00 17ae      	CP   R26,R30
000f01 07bf      	CPC  R27,R31
000f02 9508      	RET
                 
                 ;OPTIMIZER ADDED SUBROUTINE, CALLED 3 TIMES, CODE SIZE REDUCTION:1 WORDS
                 SUBOPT_0x3D:
000f03 85e9      	LDD  R30,Y+9
000f04 85fa      	LDD  R31,Y+9+1
000f05 17ea      	CP   R30,R26
000f06 07fb      	CPC  R31,R27
000f07 9508      	RET
                 
                 ;OPTIMIZER ADDED SUBROUTINE, CALLED 4 TIMES, CODE SIZE REDUCTION:9 WORDS
                 SUBOPT_0x3E:
000f08 930a      	ST   -Y,R16
000f09 2fa4      	MOV  R26,R20
000f0a 940e 084c 	CALL _glcd_setpixel
000f0c 81af      	LDD  R26,Y+7
000f0d 30a2      	CPI  R26,LOW(0x2)
000f0e 9508      	RET
                 
                 ;OPTIMIZER ADDED SUBROUTINE, CALLED 2 TIMES, CODE SIZE REDUCTION:3 WORDS
                 SUBOPT_0x3F:
000f0f 930a      	ST   -Y,R16
000f10 2fa4      	MOV  R26,R20
000f11 5fae      	SUBI R26,-LOW(2)
000f12 940e 05e5 	CALL _glcd_getpixel
000f14 2fae      	MOV  R26,R30
000f15 81ee      	LDD  R30,Y+6
000f16 17ea      	CP   R30,R26
000f17 9508      	RET
                 
                 ;OPTIMIZER ADDED SUBROUTINE, CALLED 2 TIMES, CODE SIZE REDUCTION:2 WORDS
                 SUBOPT_0x40:
000f18 93ea      	ST   -Y,R30
000f19 2fa2      	MOV  R26,R18
000f1a 940e 05e5 	CALL _glcd_getpixel
000f1c 2fae      	MOV  R26,R30
000f1d 81ee      	LDD  R30,Y+6
000f1e 17ea      	CP   R30,R26
000f1f 9508      	RET
                 
                 ;OPTIMIZER ADDED SUBROUTINE, CALLED 2 TIMES, CODE SIZE REDUCTION:2 WORDS
                 SUBOPT_0x41:
000f20 93ea      	ST   -Y,R30
000f21 2fa4      	MOV  R26,R20
000f22 940e 05e5 	CALL _glcd_getpixel
000f24 2fae      	MOV  R26,R30
000f25 81ee      	LDD  R30,Y+6
000f26 17ea      	CP   R30,R26
000f27 9508      	RET
                 
                 ;OPTIMIZER ADDED SUBROUTINE, CALLED 3 TIMES, CODE SIZE REDUCTION:1 WORDS
                 SUBOPT_0x42:
000f28 85e9      	LDD  R30,Y+9
000f29 93ea      	ST   -Y,R30
000f2a 85e9      	LDD  R30,Y+9
000f2b 93ea      	ST   -Y,R30
000f2c 9508      	RET
                 
                 
                 	.CSEG
                 _delay_ms:
000f2d 9610      	adiw r26,0
000f2e f039      	breq __delay_ms1
                 __delay_ms0:
                +
000f2f ed80     +LDI R24 , LOW ( 0x7D0 )
000f30 e097     +LDI R25 , HIGH ( 0x7D0 )
                +__DELAY_USW_LOOP :
000f31 9701     +SBIW R24 , 1
000f32 f7f1     +BRNE __DELAY_USW_LOOP
                 	__DELAY_USW 0x7D0
000f33 95a8      	wdr
000f34 9711      	sbiw r26,1
000f35 f7c9      	brne __delay_ms0
                 __delay_ms1:
000f36 9508      	ret
                 
                 __ANEGF1:
000f37 9730      	SBIW R30,0
000f38 4060      	SBCI R22,0
000f39 4070      	SBCI R23,0
000f3a f009      	BREQ __ANEGF10
000f3b 5870      	SUBI R23,0x80
                 __ANEGF10:
000f3c 9508      	RET
                 
                 __ROUND_REPACK:
000f3d 2355      	TST  R21
000f3e f442      	BRPL __REPACK
000f3f 3850      	CPI  R21,0x80
000f40 f411      	BRNE __ROUND_REPACK0
000f41 ffe0      	SBRS R30,0
000f42 c004      	RJMP __REPACK
                 __ROUND_REPACK0:
000f43 9631      	ADIW R30,1
000f44 1f69      	ADC  R22,R25
000f45 1f79      	ADC  R23,R25
000f46 f06b      	BRVS __REPACK1
                 
                 __REPACK:
000f47 e850      	LDI  R21,0x80
000f48 2757      	EOR  R21,R23
000f49 f411      	BRNE __REPACK0
000f4a 935f      	PUSH R21
000f4b c0b1      	RJMP __ZERORES
                 __REPACK0:
000f4c 3f5f      	CPI  R21,0xFF
000f4d f031      	BREQ __REPACK1
000f4e 0f66      	LSL  R22
000f4f 0c00      	LSL  R0
000f50 9557      	ROR  R21
000f51 9567      	ROR  R22
000f52 2f75      	MOV  R23,R21
000f53 9508      	RET
                 __REPACK1:
000f54 935f      	PUSH R21
000f55 2000      	TST  R0
000f56 f00a      	BRMI __REPACK2
000f57 c0b1      	RJMP __MAXRES
                 __REPACK2:
000f58 c0aa      	RJMP __MINRES
                 
                 __UNPACK:
000f59 e850      	LDI  R21,0x80
000f5a 2e19      	MOV  R1,R25
000f5b 2215      	AND  R1,R21
000f5c 0f88      	LSL  R24
000f5d 1f99      	ROL  R25
000f5e 2795      	EOR  R25,R21
000f5f 0f55      	LSL  R21
000f60 9587      	ROR  R24
                 
                 __UNPACK1:
000f61 e850      	LDI  R21,0x80
000f62 2e07      	MOV  R0,R23
000f63 2205      	AND  R0,R21
000f64 0f66      	LSL  R22
000f65 1f77      	ROL  R23
000f66 2775      	EOR  R23,R21
000f67 0f55      	LSL  R21
000f68 9567      	ROR  R22
000f69 9508      	RET
                 
                 __CFD1U:
000f6a 9468      	SET
000f6b c001      	RJMP __CFD1U0
                 __CFD1:
000f6c 94e8      	CLT
                 __CFD1U0:
000f6d 935f      	PUSH R21
000f6e dff2      	RCALL __UNPACK1
000f6f 3870      	CPI  R23,0x80
000f70 f018      	BRLO __CFD10
000f71 3f7f      	CPI  R23,0xFF
000f72 f408      	BRCC __CFD10
000f73 c089      	RJMP __ZERORES
                 __CFD10:
000f74 e156      	LDI  R21,22
000f75 1b57      	SUB  R21,R23
000f76 f4aa      	BRPL __CFD11
000f77 9551      	NEG  R21
000f78 3058      	CPI  R21,8
000f79 f40e      	BRTC __CFD19
000f7a 3059      	CPI  R21,9
                 __CFD19:
000f7b f030      	BRLO __CFD17
000f7c efef      	SER  R30
000f7d efff      	SER  R31
000f7e ef6f      	SER  R22
000f7f e77f      	LDI  R23,0x7F
000f80 f977      	BLD  R23,7
000f81 c01a      	RJMP __CFD15
                 __CFD17:
000f82 2777      	CLR  R23
000f83 2355      	TST  R21
000f84 f0b9      	BREQ __CFD15
                 __CFD18:
000f85 0fee      	LSL  R30
000f86 1fff      	ROL  R31
000f87 1f66      	ROL  R22
000f88 1f77      	ROL  R23
000f89 955a      	DEC  R21
000f8a f7d1      	BRNE __CFD18
000f8b c010      	RJMP __CFD15
                 __CFD11:
000f8c 2777      	CLR  R23
                 __CFD12:
000f8d 3058      	CPI  R21,8
000f8e f028      	BRLO __CFD13
000f8f 2fef      	MOV  R30,R31
000f90 2ff6      	MOV  R31,R22
000f91 2f67      	MOV  R22,R23
000f92 5058      	SUBI R21,8
000f93 cff9      	RJMP __CFD12
                 __CFD13:
000f94 2355      	TST  R21
000f95 f031      	BREQ __CFD15
                 __CFD14:
000f96 9576      	LSR  R23
000f97 9567      	ROR  R22
000f98 95f7      	ROR  R31
000f99 95e7      	ROR  R30
000f9a 955a      	DEC  R21
000f9b f7d1      	BRNE __CFD14
                 __CFD15:
000f9c 2000      	TST  R0
000f9d f40a      	BRPL __CFD16
000f9e d127      	RCALL __ANEGD1
                 __CFD16:
000f9f 915f      	POP  R21
000fa0 9508      	RET
                 
                 __SWAPACC:
000fa1 934f      	PUSH R20
000fa2 01af      	MOVW R20,R30
000fa3 01fd      	MOVW R30,R26
000fa4 01da      	MOVW R26,R20
000fa5 01ab      	MOVW R20,R22
000fa6 01bc      	MOVW R22,R24
000fa7 01ca      	MOVW R24,R20
000fa8 2d40      	MOV  R20,R0
000fa9 2c01      	MOV  R0,R1
000faa 2e14      	MOV  R1,R20
000fab 914f      	POP  R20
000fac 9508      	RET
                 
                 __UADD12:
000fad 0fea      	ADD  R30,R26
000fae 1ffb      	ADC  R31,R27
000faf 1f68      	ADC  R22,R24
000fb0 9508      	RET
                 
                 __NEGMAN1:
000fb1 95e0      	COM  R30
000fb2 95f0      	COM  R31
000fb3 9560      	COM  R22
000fb4 5fef      	SUBI R30,-1
000fb5 4fff      	SBCI R31,-1
000fb6 4f6f      	SBCI R22,-1
000fb7 9508      	RET
                 
                 __SUBF12:
000fb8 935f      	PUSH R21
000fb9 df9f      	RCALL __UNPACK
000fba 3890      	CPI  R25,0x80
000fbb f171      	BREQ __ADDF129
000fbc e850      	LDI  R21,0x80
000fbd 2615      	EOR  R1,R21
                 
000fbe c004      	RJMP __ADDF120
                 
                 __ADDF12:
000fbf 935f      	PUSH R21
000fc0 df98      	RCALL __UNPACK
000fc1 3890      	CPI  R25,0x80
000fc2 f139      	BREQ __ADDF129
                 
                 __ADDF120:
000fc3 3870      	CPI  R23,0x80
000fc4 f121      	BREQ __ADDF128
                 __ADDF121:
000fc5 2f57      	MOV  R21,R23
000fc6 1b59      	SUB  R21,R25
000fc7 f12b      	BRVS __ADDF1211
000fc8 f412      	BRPL __ADDF122
000fc9 dfd7      	RCALL __SWAPACC
000fca cffa      	RJMP __ADDF121
                 __ADDF122:
000fcb 3158      	CPI  R21,24
000fcc f018      	BRLO __ADDF123
000fcd 27aa      	CLR  R26
000fce 27bb      	CLR  R27
000fcf 2788      	CLR  R24
                 __ADDF123:
000fd0 3058      	CPI  R21,8
000fd1 f028      	BRLO __ADDF124
000fd2 2fab      	MOV  R26,R27
000fd3 2fb8      	MOV  R27,R24
000fd4 2788      	CLR  R24
000fd5 5058      	SUBI R21,8
000fd6 cff9      	RJMP __ADDF123
                 __ADDF124:
000fd7 2355      	TST  R21
000fd8 f029      	BREQ __ADDF126
                 __ADDF125:
000fd9 9586      	LSR  R24
000fda 95b7      	ROR  R27
000fdb 95a7      	ROR  R26
000fdc 955a      	DEC  R21
000fdd f7d9      	BRNE __ADDF125
                 __ADDF126:
000fde 2d50      	MOV  R21,R0
000fdf 2551      	EOR  R21,R1
000fe0 f072      	BRMI __ADDF127
000fe1 dfcb      	RCALL __UADD12
000fe2 f438      	BRCC __ADDF129
000fe3 9567      	ROR  R22
000fe4 95f7      	ROR  R31
000fe5 95e7      	ROR  R30
000fe6 9573      	INC  R23
000fe7 f413      	BRVC __ADDF129
000fe8 c020      	RJMP __MAXRES
                 __ADDF128:
000fe9 dfb7      	RCALL __SWAPACC
                 __ADDF129:
000fea df5c      	RCALL __REPACK
000feb 915f      	POP  R21
000fec 9508      	RET
                 __ADDF1211:
000fed f7d8      	BRCC __ADDF128
000fee cffb      	RJMP __ADDF129
                 __ADDF127:
000fef 1bea      	SUB  R30,R26
000ff0 0bfb      	SBC  R31,R27
000ff1 0b68      	SBC  R22,R24
000ff2 f051      	BREQ __ZERORES
000ff3 f410      	BRCC __ADDF1210
000ff4 9400      	COM  R0
000ff5 dfbb      	RCALL __NEGMAN1
                 __ADDF1210:
000ff6 2366      	TST  R22
000ff7 f392      	BRMI __ADDF129
000ff8 0fee      	LSL  R30
000ff9 1fff      	ROL  R31
000ffa 1f66      	ROL  R22
000ffb 957a      	DEC  R23
000ffc f7cb      	BRVC __ADDF1210
                 
                 __ZERORES:
000ffd 27ee      	CLR  R30
000ffe 27ff      	CLR  R31
000fff 2766      	CLR  R22
001000 2777      	CLR  R23
001001 915f      	POP  R21
001002 9508      	RET
                 
                 __MINRES:
001003 efef      	SER  R30
001004 efff      	SER  R31
001005 e76f      	LDI  R22,0x7F
001006 ef7f      	SER  R23
001007 915f      	POP  R21
001008 9508      	RET
                 
                 __MAXRES:
001009 efef      	SER  R30
00100a efff      	SER  R31
00100b e76f      	LDI  R22,0x7F
00100c e77f      	LDI  R23,0x7F
00100d 915f      	POP  R21
00100e 9508      	RET
                 
                 __MULF12:
00100f 935f      	PUSH R21
001010 df48      	RCALL __UNPACK
001011 3870      	CPI  R23,0x80
001012 f351      	BREQ __ZERORES
001013 3890      	CPI  R25,0x80
001014 f341      	BREQ __ZERORES
001015 2401      	EOR  R0,R1
001016 9408      	SEC
001017 1f79      	ADC  R23,R25
001018 f423      	BRVC __MULF124
001019 f31c      	BRLT __ZERORES
                 __MULF125:
00101a 2000      	TST  R0
00101b f33a      	BRMI __MINRES
00101c cfec      	RJMP __MAXRES
                 __MULF124:
00101d 920f      	PUSH R0
00101e 931f      	PUSH R17
00101f 932f      	PUSH R18
001020 933f      	PUSH R19
001021 934f      	PUSH R20
001022 2711      	CLR  R17
001023 2722      	CLR  R18
001024 2799      	CLR  R25
001025 9f68      	MUL  R22,R24
001026 01a0      	MOVW R20,R0
001027 9f8f      	MUL  R24,R31
001028 2d30      	MOV  R19,R0
001029 0d41      	ADD  R20,R1
00102a 1f59      	ADC  R21,R25
00102b 9f6b      	MUL  R22,R27
00102c 0d30      	ADD  R19,R0
00102d 1d41      	ADC  R20,R1
00102e 1f59      	ADC  R21,R25
00102f 9f8e      	MUL  R24,R30
001030 d027      	RCALL __MULF126
001031 9fbf      	MUL  R27,R31
001032 d025      	RCALL __MULF126
001033 9f6a      	MUL  R22,R26
001034 d023      	RCALL __MULF126
001035 9fbe      	MUL  R27,R30
001036 d01d      	RCALL __MULF127
001037 9faf      	MUL  R26,R31
001038 d01b      	RCALL __MULF127
001039 9fae      	MUL  R26,R30
00103a 0d11      	ADD  R17,R1
00103b 1f29      	ADC  R18,R25
00103c 1f39      	ADC  R19,R25
00103d 1f49      	ADC  R20,R25
00103e 1f59      	ADC  R21,R25
00103f 2fe3      	MOV  R30,R19
001040 2ff4      	MOV  R31,R20
001041 2f65      	MOV  R22,R21
001042 2f52      	MOV  R21,R18
001043 914f      	POP  R20
001044 913f      	POP  R19
001045 912f      	POP  R18
001046 911f      	POP  R17
001047 900f      	POP  R0
001048 2366      	TST  R22
001049 f02a      	BRMI __MULF122
00104a 0f55      	LSL  R21
00104b 1fee      	ROL  R30
00104c 1fff      	ROL  R31
00104d 1f66      	ROL  R22
00104e c002      	RJMP __MULF123
                 __MULF122:
00104f 9573      	INC  R23
001050 f24b      	BRVS __MULF125
                 __MULF123:
001051 deeb      	RCALL __ROUND_REPACK
001052 915f      	POP  R21
001053 9508      	RET
                 
                 __MULF127:
001054 0d10      	ADD  R17,R0
001055 1d21      	ADC  R18,R1
001056 1f39      	ADC  R19,R25
001057 c002      	RJMP __MULF128
                 __MULF126:
001058 0d20      	ADD  R18,R0
001059 1d31      	ADC  R19,R1
                 __MULF128:
00105a 1f49      	ADC  R20,R25
00105b 1f59      	ADC  R21,R25
00105c 9508      	RET
                 
                 __DIVF21:
00105d 935f      	PUSH R21
00105e defa      	RCALL __UNPACK
00105f 3870      	CPI  R23,0x80
001060 f421      	BRNE __DIVF210
001061 2011      	TST  R1
                 __DIVF211:
001062 f40a      	BRPL __DIVF219
001063 cf9f      	RJMP __MINRES
                 __DIVF219:
001064 cfa4      	RJMP __MAXRES
                 __DIVF210:
001065 3890      	CPI  R25,0x80
001066 f409      	BRNE __DIVF218
                 __DIVF217:
001067 cf95      	RJMP __ZERORES
                 __DIVF218:
001068 2401      	EOR  R0,R1
001069 9408      	SEC
00106a 0b97      	SBC  R25,R23
00106b f41b      	BRVC __DIVF216
00106c f3d4      	BRLT __DIVF217
00106d 2000      	TST  R0
00106e cff3      	RJMP __DIVF211
                 __DIVF216:
00106f 2f79      	MOV  R23,R25
001070 931f      	PUSH R17
001071 932f      	PUSH R18
001072 933f      	PUSH R19
001073 934f      	PUSH R20
001074 2411      	CLR  R1
001075 2711      	CLR  R17
001076 2722      	CLR  R18
001077 2733      	CLR  R19
001078 2744      	CLR  R20
001079 2755      	CLR  R21
00107a e290      	LDI  R25,32
                 __DIVF212:
00107b 17ae      	CP   R26,R30
00107c 07bf      	CPC  R27,R31
00107d 0786      	CPC  R24,R22
00107e 0741      	CPC  R20,R17
00107f f030      	BRLO __DIVF213
001080 1bae      	SUB  R26,R30
001081 0bbf      	SBC  R27,R31
001082 0b86      	SBC  R24,R22
001083 0b41      	SBC  R20,R17
001084 9408      	SEC
001085 c001      	RJMP __DIVF214
                 __DIVF213:
001086 9488      	CLC
                 __DIVF214:
001087 1f55      	ROL  R21
001088 1f22      	ROL  R18
001089 1f33      	ROL  R19
00108a 1c11      	ROL  R1
00108b 1faa      	ROL  R26
00108c 1fbb      	ROL  R27
00108d 1f88      	ROL  R24
00108e 1f44      	ROL  R20
00108f 959a      	DEC  R25
001090 f751      	BRNE __DIVF212
001091 01f9      	MOVW R30,R18
001092 2d61      	MOV  R22,R1
001093 914f      	POP  R20
001094 913f      	POP  R19
001095 912f      	POP  R18
001096 911f      	POP  R17
001097 2366      	TST  R22
001098 f032      	BRMI __DIVF215
001099 0f55      	LSL  R21
00109a 1fee      	ROL  R30
00109b 1fff      	ROL  R31
00109c 1f66      	ROL  R22
00109d 957a      	DEC  R23
00109e f243      	BRVS __DIVF217
                 __DIVF215:
00109f de9d      	RCALL __ROUND_REPACK
0010a0 915f      	POP  R21
0010a1 9508      	RET
                 
                 __CMPF12:
0010a2 2399      	TST  R25
0010a3 f09a      	BRMI __CMPF120
0010a4 2377      	TST  R23
0010a5 f042      	BRMI __CMPF121
0010a6 1797      	CP   R25,R23
0010a7 f048      	BRLO __CMPF122
0010a8 f429      	BRNE __CMPF121
0010a9 17ae      	CP   R26,R30
0010aa 07bf      	CPC  R27,R31
0010ab 0786      	CPC  R24,R22
0010ac f020      	BRLO __CMPF122
0010ad f031      	BREQ __CMPF123
                 __CMPF121:
0010ae 9498      	CLZ
0010af 9488      	CLC
0010b0 9508      	RET
                 __CMPF122:
0010b1 9498      	CLZ
0010b2 9408      	SEC
0010b3 9508      	RET
                 __CMPF123:
0010b4 9418      	SEZ
0010b5 9488      	CLC
0010b6 9508      	RET
                 __CMPF120:
0010b7 2377      	TST  R23
0010b8 f7c2      	BRPL __CMPF122
0010b9 1797      	CP   R25,R23
0010ba f398      	BRLO __CMPF121
0010bb f7a9      	BRNE __CMPF122
0010bc 17ea      	CP   R30,R26
0010bd 07fb      	CPC  R31,R27
0010be 0768      	CPC  R22,R24
0010bf f388      	BRLO __CMPF122
0010c0 f399      	BREQ __CMPF123
0010c1 cfec      	RJMP __CMPF121
                 
                 __ANEGW1:
0010c2 95f1      	NEG  R31
0010c3 95e1      	NEG  R30
0010c4 40f0      	SBCI R31,0
0010c5 9508      	RET
                 
                 __ANEGD1:
0010c6 95f0      	COM  R31
0010c7 9560      	COM  R22
0010c8 9570      	COM  R23
0010c9 95e1      	NEG  R30
0010ca 4fff      	SBCI R31,-1
0010cb 4f6f      	SBCI R22,-1
0010cc 4f7f      	SBCI R23,-1
0010cd 9508      	RET
                 
                 __LSLB12:
0010ce 23ee      	TST  R30
0010cf 2e0e      	MOV  R0,R30
0010d0 2fea      	MOV  R30,R26
0010d1 f019      	BREQ __LSLB12R
                 __LSLB12L:
0010d2 0fee      	LSL  R30
0010d3 940a      	DEC  R0
0010d4 f7e9      	BRNE __LSLB12L
                 __LSLB12R:
0010d5 9508      	RET
                 
                 __LSRB12:
0010d6 23ee      	TST  R30
0010d7 2e0e      	MOV  R0,R30
0010d8 2fea      	MOV  R30,R26
0010d9 f019      	BREQ __LSRB12R
                 __LSRB12L:
0010da 95e6      	LSR  R30
0010db 940a      	DEC  R0
0010dc f7e9      	BRNE __LSRB12L
                 __LSRB12R:
0010dd 9508      	RET
                 
                 __LSLW2:
0010de 0fee      	LSL  R30
0010df 1fff      	ROL  R31
0010e0 0fee      	LSL  R30
0010e1 1fff      	ROL  R31
0010e2 9508      	RET
                 
                 __ASRW2:
0010e3 95f5      	ASR  R31
0010e4 95e7      	ROR  R30
0010e5 95f5      	ASR  R31
0010e6 95e7      	ROR  R30
0010e7 9508      	RET
                 
                 __MULW12U:
0010e8 9ffa      	MUL  R31,R26
0010e9 2df0      	MOV  R31,R0
0010ea 9feb      	MUL  R30,R27
0010eb 0df0      	ADD  R31,R0
0010ec 9fea      	MUL  R30,R26
0010ed 2de0      	MOV  R30,R0
0010ee 0df1      	ADD  R31,R1
0010ef 9508      	RET
                 
                 __MULW12:
0010f0 d034      	RCALL __CHKSIGNW
0010f1 dff6      	RCALL __MULW12U
0010f2 f40e      	BRTC __MULW121
0010f3 dfce      	RCALL __ANEGW1
                 __MULW121:
0010f4 9508      	RET
                 
                 __DIVW21U:
0010f5 2400      	CLR  R0
0010f6 2411      	CLR  R1
0010f7 e190      	LDI  R25,16
                 __DIVW21U1:
0010f8 0faa      	LSL  R26
0010f9 1fbb      	ROL  R27
0010fa 1c00      	ROL  R0
0010fb 1c11      	ROL  R1
0010fc 1a0e      	SUB  R0,R30
0010fd 0a1f      	SBC  R1,R31
0010fe f418      	BRCC __DIVW21U2
0010ff 0e0e      	ADD  R0,R30
001100 1e1f      	ADC  R1,R31
001101 c001      	RJMP __DIVW21U3
                 __DIVW21U2:
001102 60a1      	SBR  R26,1
                 __DIVW21U3:
001103 959a      	DEC  R25
001104 f799      	BRNE __DIVW21U1
001105 01fd      	MOVW R30,R26
001106 01d0      	MOVW R26,R0
001107 9508      	RET
                 
                 __DIVW21:
001108 d01c      	RCALL __CHKSIGNW
001109 dfeb      	RCALL __DIVW21U
00110a f40e      	BRTC __DIVW211
00110b dfb6      	RCALL __ANEGW1
                 __DIVW211:
00110c 9508      	RET
                 
                 __MODW21:
00110d 94e8      	CLT
00110e ffb7      	SBRS R27,7
00110f c004      	RJMP __MODW211
001110 95a0      	COM  R26
001111 95b0      	COM  R27
001112 9611      	ADIW R26,1
001113 9468      	SET
                 __MODW211:
001114 fdf7      	SBRC R31,7
001115 dfac      	RCALL __ANEGW1
001116 dfde      	RCALL __DIVW21U
001117 01fd      	MOVW R30,R26
001118 f40e      	BRTC __MODW212
001119 dfa8      	RCALL __ANEGW1
                 __MODW212:
00111a 9508      	RET
                 
                 __MANDW12:
00111b 94e8      	CLT
00111c fff7      	SBRS R31,7
00111d c002      	RJMP __MANDW121
00111e dfa3      	RCALL __ANEGW1
00111f 9468      	SET
                 __MANDW121:
001120 23ea      	AND  R30,R26
001121 23fb      	AND  R31,R27
001122 f40e      	BRTC __MANDW122
001123 df9e      	RCALL __ANEGW1
                 __MANDW122:
001124 9508      	RET
                 
                 __CHKSIGNW:
001125 94e8      	CLT
001126 fff7      	SBRS R31,7
001127 c002      	RJMP __CHKSW1
001128 df99      	RCALL __ANEGW1
001129 9468      	SET
                 __CHKSW1:
00112a ffb7      	SBRS R27,7
00112b c006      	RJMP __CHKSW2
00112c 95a0      	COM  R26
00112d 95b0      	COM  R27
00112e 9611      	ADIW R26,1
00112f f800      	BLD  R0,0
001130 9403      	INC  R0
001131 fa00      	BST  R0,0
                 __CHKSW2:
001132 9508      	RET
                 
                 __GETW1P:
001133 91ed      	LD   R30,X+
001134 91fc      	LD   R31,X
001135 9711      	SBIW R26,1
001136 9508      	RET
                 
                 __GETD1S0:
001137 81e8      	LD   R30,Y
001138 81f9      	LDD  R31,Y+1
001139 816a      	LDD  R22,Y+2
00113a 817b      	LDD  R23,Y+3
00113b 9508      	RET
                 
                 __GETD2S0:
00113c 81a8      	LD   R26,Y
00113d 81b9      	LDD  R27,Y+1
00113e 818a      	LDD  R24,Y+2
00113f 819b      	LDD  R25,Y+3
001140 9508      	RET
                 
                 __PUTD1S0:
001141 83e8      	ST   Y,R30
001142 83f9      	STD  Y+1,R31
001143 836a      	STD  Y+2,R22
001144 837b      	STD  Y+3,R23
001145 9508      	RET
                 
                 __PUTPARD2:
001146 939a      	ST   -Y,R25
001147 938a      	ST   -Y,R24
001148 93ba      	ST   -Y,R27
001149 93aa      	ST   -Y,R26
00114a 9508      	RET
                 
                 __SWAPD12:
00114b 2e18      	MOV  R1,R24
00114c 2f86      	MOV  R24,R22
00114d 2d61      	MOV  R22,R1
00114e 2e19      	MOV  R1,R25
00114f 2f97      	MOV  R25,R23
001150 2d71      	MOV  R23,R1
                 
                 __SWAPW12:
001151 2e1b      	MOV  R1,R27
001152 2fbf      	MOV  R27,R31
001153 2df1      	MOV  R31,R1
                 
                 __SWAPB12:
001154 2e1a      	MOV  R1,R26
001155 2fae      	MOV  R26,R30
001156 2de1      	MOV  R30,R1
001157 9508      	RET
                 
                 __EEPROMRDB:
001158 99e1      	SBIC EECR,EEWE
001159 cffe      	RJMP __EEPROMRDB
00115a 93ff      	PUSH R31
00115b b7ff      	IN   R31,SREG
00115c 94f8      	CLI
00115d bbae      	OUT  EEARL,R26
00115e bbbf      	OUT  EEARH,R27
00115f 9ae0      	SBI  EECR,EERE
001160 b3ed      	IN   R30,EEDR
001161 bfff      	OUT  SREG,R31
001162 91ff      	POP  R31
001163 9508      	RET
                 
                 __EEPROMWRB:
001164 9be1      	SBIS EECR,EEWE
001165 c002      	RJMP __EEPROMWRB1
001166 95a8      	WDR
001167 cffc      	RJMP __EEPROMWRB
                 __EEPROMWRB1:
001168 b79f      	IN   R25,SREG
001169 94f8      	CLI
00116a bbae      	OUT  EEARL,R26
00116b bbbf      	OUT  EEARH,R27
00116c 9ae0      	SBI  EECR,EERE
00116d b38d      	IN   R24,EEDR
00116e 17e8      	CP   R30,R24
00116f f019      	BREQ __EEPROMWRB0
001170 bbed      	OUT  EEDR,R30
001171 9ae2      	SBI  EECR,EEMWE
001172 9ae1      	SBI  EECR,EEWE
                 __EEPROMWRB0:
001173 bf9f      	OUT  SREG,R25
001174 9508      	RET
                 
                 __CPW02:
001175 2400      	CLR  R0
001176 160a      	CP   R0,R26
001177 060b      	CPC  R0,R27
001178 9508      	RET
                 
                 __SAVELOCR6:
001179 935a      	ST   -Y,R21
                 __SAVELOCR5:
00117a 934a      	ST   -Y,R20
                 __SAVELOCR4:
00117b 933a      	ST   -Y,R19
                 __SAVELOCR3:
00117c 932a      	ST   -Y,R18
                 __SAVELOCR2:
00117d 931a      	ST   -Y,R17
00117e 930a      	ST   -Y,R16
00117f 9508      	RET
                 
                 __LOADLOCR6:
001180 815d      	LDD  R21,Y+5
                 __LOADLOCR5:
001181 814c      	LDD  R20,Y+4
                 __LOADLOCR4:
001182 813b      	LDD  R19,Y+3
                 __LOADLOCR3:
001183 812a      	LDD  R18,Y+2
                 __LOADLOCR2:
001184 8119      	LDD  R17,Y+1
001185 8108      	LD   R16,Y
001186 9508      	RET
                 
                 ;END OF CODE MARKER
                 __END_OF_CODE:


RESOURCE USE INFORMATION
------------------------

Notice:
The register and instruction counts are symbol table hit counts,
and hence implicitly used resources are not counted, eg, the
'lpm' instruction without operands implicitly uses r0 and z,
none of which are counted.

x,y,z are separate entities in the symbol table and are
counted separately from r26..r31 here.

.dseg memory usage only counts static data declared with .byte

ATmega16A register use summary:
r0 :  53 r1 :  38 r2 :   0 r3 :   0 r4 :   0 r5 :   0 r6 :   0 r7 :   0 
r8 :   6 r9 :   1 r10:   5 r11:   3 r12:   6 r13:   3 r14:   0 r15:   0 
r16:  91 r17: 134 r18:  66 r19:  77 r20:  57 r21: 105 r22:  79 r23:  74 
r24:  63 r25:  64 r26: 514 r27: 207 r28:  29 r29:   1 r30:1091 r31: 289 
x  :  21 y  : 758 z  :  28 
Registers used: 27 out of 35 (77.1%)

ATmega16A instruction use summary:
.lds  :   0 .lds.l:   0 .sts  :   0 .sts.l:   0 adc   :  39 add   :  42 
adiw  :  37 and   :  18 andi  :  28 asr   :   2 bclr  :   0 bld   :   3 
brbc  :   0 brbs  :   0 brcc  :   8 brcs  :   1 break :   0 breq  :  57 
brge  :  19 brhc  :   0 brhs  :   0 brid  :   0 brie  :   0 brlo  :  29 
brlt  :  22 brmi  :  12 brne  :  98 brpl  :  11 brsh  :  27 brtc  :   6 
brts  :   0 brvc  :   4 brvs  :   4 bset  :   0 bst   :   3 call  : 312 
cbi   :   7 cbr   :   1 clc   :   3 clh   :   0 cli   :   3 cln   :   0 
clr   :  65 cls   :   0 clt   :   5 clv   :   0 clz   :   2 com   :  19 
cp    :  54 cpc   :  36 cpi   : 110 cpse  :   0 dec   :  13 des   :   0 
eor   :   8 fmul  :   0 fmuls :   0 fmulsu:   0 icall :   2 ijmp  :   0 
in    :   4 inc   :   7 jmp   :  44 ld    :  43 ldd   : 417 ldi   : 374 
lds   : 106 lpm   :  23 lsl   :  20 lsr   :  18 mov   : 183 movw  :  61 
mul   :  13 muls  :   0 mulsu :   0 neg   :   4 nop   :   0 or    :   6 
ori   :   7 out   :  47 pop   :  32 push  :  32 rcall : 108 ret   : 115 
reti  :   0 rjmp  : 170 rol   :  29 ror   :  17 sbc   :  21 sbci  :  25 
sbi   :  16 sbic  :   2 sbis  :   3 sbiw  :  38 sbr   :   3 sbrc  :   2 
sbrs  :   5 sec   :   5 seh   :   0 sei   :   0 sen   :   0 ser   :   8 
ses   :   0 set   :   4 sev   :   0 sez   :   1 sleep :   0 spm   :   0 
st    : 234 std   :  98 sts   :  64 sub   :  31 subi  :  76 swap  :   0 
tst   :  26 wdr   :   2 
Instructions used: 80 out of 116 (69.0%)

ATmega16A memory use summary [bytes]:
Segment   Begin    End      Code   Data   Used    Size   Use%
---------------------------------------------------------------
[.cseg] 0x000000 0x00230e   8344    630   8974   16384  54.8%
[.dseg] 0x000060 0x0003b4      0    596    596    1024  58.2%
[.eseg] 0x000000 0x000000      0      0      0     512   0.0%

Assembly complete, 0 errors, 20 warnings
